
build/kernel.bin:     file format elf64-littleriscv


Disassembly of section .text:

0000000080000000 <_start>:
    80000000:	f1402273          	csrr	tp,mhartid
    80000004:	00004117          	auipc	sp,0x4
    80000008:	32c10113          	addi	sp,sp,812 # 80004330 <ks_stack>
    8000000c:	00120293          	addi	t0,tp,1 # 1 <_start-0x7fffffff>
    80000010:	00001337          	lui	t1,0x1
    80000014:	026282b3          	mul	t0,t0,t1
    80000018:	00228133          	add	sp,t0,sp
    8000001c:	128000ef          	jal	ra,80000144 <start>

0000000080000020 <timer_init>:
    80000020:	fd010113          	addi	sp,sp,-48
    80000024:	02113423          	sd	ra,40(sp)
    80000028:	02813023          	sd	s0,32(sp)
    8000002c:	03010413          	addi	s0,sp,48
    80000030:	494000ef          	jal	ra,800004c4 <r_mhartid>
    80000034:	fea43423          	sd	a0,-24(s0)
    80000038:	007a17b7          	lui	a5,0x7a1
    8000003c:	20078793          	addi	a5,a5,512 # 7a1200 <_start-0x7f85ee00>
    80000040:	fef43023          	sd	a5,-32(s0)
    80000044:	0200c7b7          	lui	a5,0x200c
    80000048:	ff878793          	addi	a5,a5,-8 # 200bff8 <_start-0x7dff4008>
    8000004c:	0007b783          	ld	a5,0(a5)
    80000050:	fcf43c23          	sd	a5,-40(s0)
    80000054:	fd843703          	ld	a4,-40(s0)
    80000058:	fe043783          	ld	a5,-32(s0)
    8000005c:	00f707b3          	add	a5,a4,a5
    80000060:	fcf43c23          	sd	a5,-40(s0)
    80000064:	fe843703          	ld	a4,-24(s0)
    80000068:	004017b7          	lui	a5,0x401
    8000006c:	80078793          	addi	a5,a5,-2048 # 400800 <_start-0x7fbff800>
    80000070:	00f707b3          	add	a5,a4,a5
    80000074:	00379793          	slli	a5,a5,0x3
    80000078:	00078713          	mv	a4,a5
    8000007c:	fd843783          	ld	a5,-40(s0)
    80000080:	00f73023          	sd	a5,0(a4)
    80000084:	fe843703          	ld	a4,-24(s0)
    80000088:	004017b7          	lui	a5,0x401
    8000008c:	80078793          	addi	a5,a5,-2048 # 400800 <_start-0x7fbff800>
    80000090:	00f707b3          	add	a5,a4,a5
    80000094:	00379693          	slli	a3,a5,0x3
    80000098:	00005617          	auipc	a2,0x5
    8000009c:	29860613          	addi	a2,a2,664 # 80005330 <timer_mscratch>
    800000a0:	fe843703          	ld	a4,-24(s0)
    800000a4:	00070793          	mv	a5,a4
    800000a8:	00279793          	slli	a5,a5,0x2
    800000ac:	00e787b3          	add	a5,a5,a4
    800000b0:	00379793          	slli	a5,a5,0x3
    800000b4:	00f607b3          	add	a5,a2,a5
    800000b8:	00d7bc23          	sd	a3,24(a5)
    800000bc:	00005697          	auipc	a3,0x5
    800000c0:	27468693          	addi	a3,a3,628 # 80005330 <timer_mscratch>
    800000c4:	fe843703          	ld	a4,-24(s0)
    800000c8:	00070793          	mv	a5,a4
    800000cc:	00279793          	slli	a5,a5,0x2
    800000d0:	00e787b3          	add	a5,a5,a4
    800000d4:	00379793          	slli	a5,a5,0x3
    800000d8:	00f687b3          	add	a5,a3,a5
    800000dc:	fe043703          	ld	a4,-32(s0)
    800000e0:	02e7b023          	sd	a4,32(a5)
    800000e4:	fe843703          	ld	a4,-24(s0)
    800000e8:	00070793          	mv	a5,a4
    800000ec:	00279793          	slli	a5,a5,0x2
    800000f0:	00e787b3          	add	a5,a5,a4
    800000f4:	00379793          	slli	a5,a5,0x3
    800000f8:	00005717          	auipc	a4,0x5
    800000fc:	23870713          	addi	a4,a4,568 # 80005330 <timer_mscratch>
    80000100:	00e787b3          	add	a5,a5,a4
    80000104:	00078513          	mv	a0,a5
    80000108:	7ec000ef          	jal	ra,800008f4 <w_mscratch>
    8000010c:	1d8000ef          	jal	ra,800002e4 <r_mie>
    80000110:	00050793          	mv	a5,a0
    80000114:	0807e793          	ori	a5,a5,128
    80000118:	00078513          	mv	a0,a5
    8000011c:	580000ef          	jal	ra,8000069c <w_mie>
    80000120:	00003797          	auipc	a5,0x3
    80000124:	2e078793          	addi	a5,a5,736 # 80003400 <timer_vec>
    80000128:	00078513          	mv	a0,a5
    8000012c:	688000ef          	jal	ra,800007b4 <w_mtvec>
    80000130:	00000013          	nop
    80000134:	02813083          	ld	ra,40(sp)
    80000138:	02013403          	ld	s0,32(sp)
    8000013c:	03010113          	addi	sp,sp,48
    80000140:	00008067          	ret

0000000080000144 <start>:
    80000144:	ff010113          	addi	sp,sp,-16
    80000148:	00113423          	sd	ra,8(sp)
    8000014c:	00813023          	sd	s0,0(sp)
    80000150:	01010413          	addi	s0,sp,16
    80000154:	00000513          	li	a0,0
    80000158:	56c000ef          	jal	ra,800006c4 <w_satp>
    8000015c:	340000ef          	jal	ra,8000049c <r_mstatus>
    80000160:	00050713          	mv	a4,a0
    80000164:	000017b7          	lui	a5,0x1
    80000168:	88078793          	addi	a5,a5,-1920 # 880 <_start-0x7ffff780>
    8000016c:	00f767b3          	or	a5,a4,a5
    80000170:	00078513          	mv	a0,a5
    80000174:	6e0000ef          	jal	ra,80000854 <w_mstatus>
    80000178:	00000797          	auipc	a5,0x0
    8000017c:	7f478793          	addi	a5,a5,2036 # 8000096c <main>
    80000180:	00078513          	mv	a0,a5
    80000184:	590000ef          	jal	ra,80000714 <w_mepc>
    80000188:	000107b7          	lui	a5,0x10
    8000018c:	fff78513          	addi	a0,a5,-1 # ffff <_start-0x7fff0001>
    80000190:	714000ef          	jal	ra,800008a4 <w_medeleg>
    80000194:	000107b7          	lui	a5,0x10
    80000198:	fff78513          	addi	a0,a5,-1 # ffff <_start-0x7fff0001>
    8000019c:	6e0000ef          	jal	ra,8000087c <w_mideleg>
    800001a0:	fff00793          	li	a5,-1
    800001a4:	00a7d513          	srli	a0,a5,0xa
    800001a8:	774000ef          	jal	ra,8000091c <w_pmpaddr0>
    800001ac:	00f00513          	li	a0,15
    800001b0:	794000ef          	jal	ra,80000944 <w_pmpcfg0>
    800001b4:	e6dff0ef          	jal	ra,80000020 <timer_init>
    800001b8:	104000ef          	jal	ra,800002bc <r_sie>
    800001bc:	00050793          	mv	a5,a0
    800001c0:	2227e793          	ori	a5,a5,546
    800001c4:	00078513          	mv	a0,a5
    800001c8:	4ac000ef          	jal	ra,80000674 <w_sie>
    800001cc:	30200073          	mret
    800001d0:	00000013          	nop
    800001d4:	00813083          	ld	ra,8(sp)
    800001d8:	00013403          	ld	s0,0(sp)
    800001dc:	01010113          	addi	sp,sp,16
    800001e0:	00008067          	ret

00000000800001e4 <sfence>:
    800001e4:	ff010113          	addi	sp,sp,-16
    800001e8:	00813423          	sd	s0,8(sp)
    800001ec:	01010413          	addi	s0,sp,16
    800001f0:	12000073          	sfence.vma
    800001f4:	00000013          	nop
    800001f8:	00813403          	ld	s0,8(sp)
    800001fc:	01010113          	addi	sp,sp,16
    80000200:	00008067          	ret

0000000080000204 <r_int>:
    80000204:	ff010113          	addi	sp,sp,-16
    80000208:	00113423          	sd	ra,8(sp)
    8000020c:	00813023          	sd	s0,0(sp)
    80000210:	01010413          	addi	s0,sp,16
    80000214:	260000ef          	jal	ra,80000474 <r_sstatus>
    80000218:	00050793          	mv	a5,a0
    8000021c:	0027f793          	andi	a5,a5,2
    80000220:	00078663          	beqz	a5,8000022c <r_int+0x28>
    80000224:	00100793          	li	a5,1
    80000228:	0080006f          	j	80000230 <r_int+0x2c>
    8000022c:	00000793          	li	a5,0
    80000230:	00078513          	mv	a0,a5
    80000234:	00813083          	ld	ra,8(sp)
    80000238:	00013403          	ld	s0,0(sp)
    8000023c:	01010113          	addi	sp,sp,16
    80000240:	00008067          	ret

0000000080000244 <r_tp>:
    80000244:	fe010113          	addi	sp,sp,-32
    80000248:	00813c23          	sd	s0,24(sp)
    8000024c:	02010413          	addi	s0,sp,32
    80000250:	004007b3          	add	a5,zero,tp
    80000254:	fef43423          	sd	a5,-24(s0)
    80000258:	fe843783          	ld	a5,-24(s0)
    8000025c:	00078513          	mv	a0,a5
    80000260:	01813403          	ld	s0,24(sp)
    80000264:	02010113          	addi	sp,sp,32
    80000268:	00008067          	ret

000000008000026c <r_sip>:
    8000026c:	fe010113          	addi	sp,sp,-32
    80000270:	00813c23          	sd	s0,24(sp)
    80000274:	02010413          	addi	s0,sp,32
    80000278:	144027f3          	csrr	a5,sip
    8000027c:	fef43423          	sd	a5,-24(s0)
    80000280:	fe843783          	ld	a5,-24(s0)
    80000284:	00078513          	mv	a0,a5
    80000288:	01813403          	ld	s0,24(sp)
    8000028c:	02010113          	addi	sp,sp,32
    80000290:	00008067          	ret

0000000080000294 <r_mip>:
    80000294:	fe010113          	addi	sp,sp,-32
    80000298:	00813c23          	sd	s0,24(sp)
    8000029c:	02010413          	addi	s0,sp,32
    800002a0:	344027f3          	csrr	a5,mip
    800002a4:	fef43423          	sd	a5,-24(s0)
    800002a8:	fe843783          	ld	a5,-24(s0)
    800002ac:	00078513          	mv	a0,a5
    800002b0:	01813403          	ld	s0,24(sp)
    800002b4:	02010113          	addi	sp,sp,32
    800002b8:	00008067          	ret

00000000800002bc <r_sie>:
    800002bc:	fe010113          	addi	sp,sp,-32
    800002c0:	00813c23          	sd	s0,24(sp)
    800002c4:	02010413          	addi	s0,sp,32
    800002c8:	104027f3          	csrr	a5,sie
    800002cc:	fef43423          	sd	a5,-24(s0)
    800002d0:	fe843783          	ld	a5,-24(s0)
    800002d4:	00078513          	mv	a0,a5
    800002d8:	01813403          	ld	s0,24(sp)
    800002dc:	02010113          	addi	sp,sp,32
    800002e0:	00008067          	ret

00000000800002e4 <r_mie>:
    800002e4:	fe010113          	addi	sp,sp,-32
    800002e8:	00813c23          	sd	s0,24(sp)
    800002ec:	02010413          	addi	s0,sp,32
    800002f0:	304027f3          	csrr	a5,mie
    800002f4:	fef43423          	sd	a5,-24(s0)
    800002f8:	fe843783          	ld	a5,-24(s0)
    800002fc:	00078513          	mv	a0,a5
    80000300:	01813403          	ld	s0,24(sp)
    80000304:	02010113          	addi	sp,sp,32
    80000308:	00008067          	ret

000000008000030c <r_satp>:
    8000030c:	fe010113          	addi	sp,sp,-32
    80000310:	00813c23          	sd	s0,24(sp)
    80000314:	02010413          	addi	s0,sp,32
    80000318:	180027f3          	csrr	a5,satp
    8000031c:	fef43423          	sd	a5,-24(s0)
    80000320:	fe843783          	ld	a5,-24(s0)
    80000324:	00078513          	mv	a0,a5
    80000328:	01813403          	ld	s0,24(sp)
    8000032c:	02010113          	addi	sp,sp,32
    80000330:	00008067          	ret

0000000080000334 <r_sepc>:
    80000334:	fe010113          	addi	sp,sp,-32
    80000338:	00813c23          	sd	s0,24(sp)
    8000033c:	02010413          	addi	s0,sp,32
    80000340:	141027f3          	csrr	a5,sepc
    80000344:	fef43423          	sd	a5,-24(s0)
    80000348:	fe843783          	ld	a5,-24(s0)
    8000034c:	00078513          	mv	a0,a5
    80000350:	01813403          	ld	s0,24(sp)
    80000354:	02010113          	addi	sp,sp,32
    80000358:	00008067          	ret

000000008000035c <r_mepc>:
    8000035c:	fe010113          	addi	sp,sp,-32
    80000360:	00813c23          	sd	s0,24(sp)
    80000364:	02010413          	addi	s0,sp,32
    80000368:	341027f3          	csrr	a5,mepc
    8000036c:	fef43423          	sd	a5,-24(s0)
    80000370:	fe843783          	ld	a5,-24(s0)
    80000374:	00078513          	mv	a0,a5
    80000378:	01813403          	ld	s0,24(sp)
    8000037c:	02010113          	addi	sp,sp,32
    80000380:	00008067          	ret

0000000080000384 <r_stval>:
    80000384:	fe010113          	addi	sp,sp,-32
    80000388:	00813c23          	sd	s0,24(sp)
    8000038c:	02010413          	addi	s0,sp,32
    80000390:	143027f3          	csrr	a5,stval
    80000394:	fef43423          	sd	a5,-24(s0)
    80000398:	fe843783          	ld	a5,-24(s0)
    8000039c:	00078513          	mv	a0,a5
    800003a0:	01813403          	ld	s0,24(sp)
    800003a4:	02010113          	addi	sp,sp,32
    800003a8:	00008067          	ret

00000000800003ac <r_mtval>:
    800003ac:	fe010113          	addi	sp,sp,-32
    800003b0:	00813c23          	sd	s0,24(sp)
    800003b4:	02010413          	addi	s0,sp,32
    800003b8:	343027f3          	csrr	a5,mtval
    800003bc:	fef43423          	sd	a5,-24(s0)
    800003c0:	fe843783          	ld	a5,-24(s0)
    800003c4:	00078513          	mv	a0,a5
    800003c8:	01813403          	ld	s0,24(sp)
    800003cc:	02010113          	addi	sp,sp,32
    800003d0:	00008067          	ret

00000000800003d4 <r_stvec>:
    800003d4:	fe010113          	addi	sp,sp,-32
    800003d8:	00813c23          	sd	s0,24(sp)
    800003dc:	02010413          	addi	s0,sp,32
    800003e0:	105027f3          	csrr	a5,stvec
    800003e4:	fef43423          	sd	a5,-24(s0)
    800003e8:	fe843783          	ld	a5,-24(s0)
    800003ec:	00078513          	mv	a0,a5
    800003f0:	01813403          	ld	s0,24(sp)
    800003f4:	02010113          	addi	sp,sp,32
    800003f8:	00008067          	ret

00000000800003fc <r_mtvec>:
    800003fc:	fe010113          	addi	sp,sp,-32
    80000400:	00813c23          	sd	s0,24(sp)
    80000404:	02010413          	addi	s0,sp,32
    80000408:	305027f3          	csrr	a5,mtvec
    8000040c:	fef43423          	sd	a5,-24(s0)
    80000410:	fe843783          	ld	a5,-24(s0)
    80000414:	00078513          	mv	a0,a5
    80000418:	01813403          	ld	s0,24(sp)
    8000041c:	02010113          	addi	sp,sp,32
    80000420:	00008067          	ret

0000000080000424 <r_scause>:
    80000424:	fe010113          	addi	sp,sp,-32
    80000428:	00813c23          	sd	s0,24(sp)
    8000042c:	02010413          	addi	s0,sp,32
    80000430:	142027f3          	csrr	a5,scause
    80000434:	fef43423          	sd	a5,-24(s0)
    80000438:	fe843783          	ld	a5,-24(s0)
    8000043c:	00078513          	mv	a0,a5
    80000440:	01813403          	ld	s0,24(sp)
    80000444:	02010113          	addi	sp,sp,32
    80000448:	00008067          	ret

000000008000044c <r_mcause>:
    8000044c:	fe010113          	addi	sp,sp,-32
    80000450:	00813c23          	sd	s0,24(sp)
    80000454:	02010413          	addi	s0,sp,32
    80000458:	342027f3          	csrr	a5,mcause
    8000045c:	fef43423          	sd	a5,-24(s0)
    80000460:	fe843783          	ld	a5,-24(s0)
    80000464:	00078513          	mv	a0,a5
    80000468:	01813403          	ld	s0,24(sp)
    8000046c:	02010113          	addi	sp,sp,32
    80000470:	00008067          	ret

0000000080000474 <r_sstatus>:
    80000474:	fe010113          	addi	sp,sp,-32
    80000478:	00813c23          	sd	s0,24(sp)
    8000047c:	02010413          	addi	s0,sp,32
    80000480:	100027f3          	csrr	a5,sstatus
    80000484:	fef43423          	sd	a5,-24(s0)
    80000488:	fe843783          	ld	a5,-24(s0)
    8000048c:	00078513          	mv	a0,a5
    80000490:	01813403          	ld	s0,24(sp)
    80000494:	02010113          	addi	sp,sp,32
    80000498:	00008067          	ret

000000008000049c <r_mstatus>:
    8000049c:	fe010113          	addi	sp,sp,-32
    800004a0:	00813c23          	sd	s0,24(sp)
    800004a4:	02010413          	addi	s0,sp,32
    800004a8:	300027f3          	csrr	a5,mstatus
    800004ac:	fef43423          	sd	a5,-24(s0)
    800004b0:	fe843783          	ld	a5,-24(s0)
    800004b4:	00078513          	mv	a0,a5
    800004b8:	01813403          	ld	s0,24(sp)
    800004bc:	02010113          	addi	sp,sp,32
    800004c0:	00008067          	ret

00000000800004c4 <r_mhartid>:
    800004c4:	fe010113          	addi	sp,sp,-32
    800004c8:	00813c23          	sd	s0,24(sp)
    800004cc:	02010413          	addi	s0,sp,32
    800004d0:	f14027f3          	csrr	a5,mhartid
    800004d4:	fef43423          	sd	a5,-24(s0)
    800004d8:	fe843783          	ld	a5,-24(s0)
    800004dc:	00078513          	mv	a0,a5
    800004e0:	01813403          	ld	s0,24(sp)
    800004e4:	02010113          	addi	sp,sp,32
    800004e8:	00008067          	ret

00000000800004ec <r_mideleg>:
    800004ec:	fe010113          	addi	sp,sp,-32
    800004f0:	00813c23          	sd	s0,24(sp)
    800004f4:	02010413          	addi	s0,sp,32
    800004f8:	303027f3          	csrr	a5,mideleg
    800004fc:	fef43423          	sd	a5,-24(s0)
    80000500:	fe843783          	ld	a5,-24(s0)
    80000504:	00078513          	mv	a0,a5
    80000508:	01813403          	ld	s0,24(sp)
    8000050c:	02010113          	addi	sp,sp,32
    80000510:	00008067          	ret

0000000080000514 <r_medeleg>:
    80000514:	fe010113          	addi	sp,sp,-32
    80000518:	00813c23          	sd	s0,24(sp)
    8000051c:	02010413          	addi	s0,sp,32
    80000520:	302027f3          	csrr	a5,medeleg
    80000524:	fef43423          	sd	a5,-24(s0)
    80000528:	fe843783          	ld	a5,-24(s0)
    8000052c:	00078513          	mv	a0,a5
    80000530:	01813403          	ld	s0,24(sp)
    80000534:	02010113          	addi	sp,sp,32
    80000538:	00008067          	ret

000000008000053c <r_sscratch>:
    8000053c:	fe010113          	addi	sp,sp,-32
    80000540:	00813c23          	sd	s0,24(sp)
    80000544:	02010413          	addi	s0,sp,32
    80000548:	140027f3          	csrr	a5,sscratch
    8000054c:	fef43423          	sd	a5,-24(s0)
    80000550:	fe843783          	ld	a5,-24(s0)
    80000554:	00078513          	mv	a0,a5
    80000558:	01813403          	ld	s0,24(sp)
    8000055c:	02010113          	addi	sp,sp,32
    80000560:	00008067          	ret

0000000080000564 <r_mscratch>:
    80000564:	fe010113          	addi	sp,sp,-32
    80000568:	00813c23          	sd	s0,24(sp)
    8000056c:	02010413          	addi	s0,sp,32
    80000570:	340027f3          	csrr	a5,mscratch
    80000574:	fef43423          	sd	a5,-24(s0)
    80000578:	fe843783          	ld	a5,-24(s0)
    8000057c:	00078513          	mv	a0,a5
    80000580:	01813403          	ld	s0,24(sp)
    80000584:	02010113          	addi	sp,sp,32
    80000588:	00008067          	ret

000000008000058c <w_int_on>:
    8000058c:	ff010113          	addi	sp,sp,-16
    80000590:	00113423          	sd	ra,8(sp)
    80000594:	00813023          	sd	s0,0(sp)
    80000598:	01010413          	addi	s0,sp,16
    8000059c:	ed9ff0ef          	jal	ra,80000474 <r_sstatus>
    800005a0:	00050793          	mv	a5,a0
    800005a4:	0027e793          	ori	a5,a5,2
    800005a8:	00078513          	mv	a0,a5
    800005ac:	280000ef          	jal	ra,8000082c <w_sstatus>
    800005b0:	00000013          	nop
    800005b4:	00813083          	ld	ra,8(sp)
    800005b8:	00013403          	ld	s0,0(sp)
    800005bc:	01010113          	addi	sp,sp,16
    800005c0:	00008067          	ret

00000000800005c4 <w_int_off>:
    800005c4:	ff010113          	addi	sp,sp,-16
    800005c8:	00113423          	sd	ra,8(sp)
    800005cc:	00813023          	sd	s0,0(sp)
    800005d0:	01010413          	addi	s0,sp,16
    800005d4:	ea1ff0ef          	jal	ra,80000474 <r_sstatus>
    800005d8:	00050793          	mv	a5,a0
    800005dc:	ffd7f793          	andi	a5,a5,-3
    800005e0:	00078513          	mv	a0,a5
    800005e4:	248000ef          	jal	ra,8000082c <w_sstatus>
    800005e8:	00000013          	nop
    800005ec:	00813083          	ld	ra,8(sp)
    800005f0:	00013403          	ld	s0,0(sp)
    800005f4:	01010113          	addi	sp,sp,16
    800005f8:	00008067          	ret

00000000800005fc <w_tp>:
    800005fc:	fe010113          	addi	sp,sp,-32
    80000600:	00813c23          	sd	s0,24(sp)
    80000604:	02010413          	addi	s0,sp,32
    80000608:	fea43423          	sd	a0,-24(s0)
    8000060c:	fe843783          	ld	a5,-24(s0)
    80000610:	00f00233          	add	tp,zero,a5
    80000614:	00000013          	nop
    80000618:	01813403          	ld	s0,24(sp)
    8000061c:	02010113          	addi	sp,sp,32
    80000620:	00008067          	ret

0000000080000624 <w_sip>:
    80000624:	fe010113          	addi	sp,sp,-32
    80000628:	00813c23          	sd	s0,24(sp)
    8000062c:	02010413          	addi	s0,sp,32
    80000630:	fea43423          	sd	a0,-24(s0)
    80000634:	fe843783          	ld	a5,-24(s0)
    80000638:	14479073          	csrw	sip,a5
    8000063c:	00000013          	nop
    80000640:	01813403          	ld	s0,24(sp)
    80000644:	02010113          	addi	sp,sp,32
    80000648:	00008067          	ret

000000008000064c <w_mip>:
    8000064c:	fe010113          	addi	sp,sp,-32
    80000650:	00813c23          	sd	s0,24(sp)
    80000654:	02010413          	addi	s0,sp,32
    80000658:	fea43423          	sd	a0,-24(s0)
    8000065c:	fe843783          	ld	a5,-24(s0)
    80000660:	34479073          	csrw	mip,a5
    80000664:	00000013          	nop
    80000668:	01813403          	ld	s0,24(sp)
    8000066c:	02010113          	addi	sp,sp,32
    80000670:	00008067          	ret

0000000080000674 <w_sie>:
    80000674:	fe010113          	addi	sp,sp,-32
    80000678:	00813c23          	sd	s0,24(sp)
    8000067c:	02010413          	addi	s0,sp,32
    80000680:	fea43423          	sd	a0,-24(s0)
    80000684:	fe843783          	ld	a5,-24(s0)
    80000688:	10479073          	csrw	sie,a5
    8000068c:	00000013          	nop
    80000690:	01813403          	ld	s0,24(sp)
    80000694:	02010113          	addi	sp,sp,32
    80000698:	00008067          	ret

000000008000069c <w_mie>:
    8000069c:	fe010113          	addi	sp,sp,-32
    800006a0:	00813c23          	sd	s0,24(sp)
    800006a4:	02010413          	addi	s0,sp,32
    800006a8:	fea43423          	sd	a0,-24(s0)
    800006ac:	fe843783          	ld	a5,-24(s0)
    800006b0:	30479073          	csrw	mie,a5
    800006b4:	00000013          	nop
    800006b8:	01813403          	ld	s0,24(sp)
    800006bc:	02010113          	addi	sp,sp,32
    800006c0:	00008067          	ret

00000000800006c4 <w_satp>:
    800006c4:	fe010113          	addi	sp,sp,-32
    800006c8:	00813c23          	sd	s0,24(sp)
    800006cc:	02010413          	addi	s0,sp,32
    800006d0:	fea43423          	sd	a0,-24(s0)
    800006d4:	fe843783          	ld	a5,-24(s0)
    800006d8:	18079073          	csrw	satp,a5
    800006dc:	00000013          	nop
    800006e0:	01813403          	ld	s0,24(sp)
    800006e4:	02010113          	addi	sp,sp,32
    800006e8:	00008067          	ret

00000000800006ec <w_sepc>:
    800006ec:	fe010113          	addi	sp,sp,-32
    800006f0:	00813c23          	sd	s0,24(sp)
    800006f4:	02010413          	addi	s0,sp,32
    800006f8:	fea43423          	sd	a0,-24(s0)
    800006fc:	fe843783          	ld	a5,-24(s0)
    80000700:	14179073          	csrw	sepc,a5
    80000704:	00000013          	nop
    80000708:	01813403          	ld	s0,24(sp)
    8000070c:	02010113          	addi	sp,sp,32
    80000710:	00008067          	ret

0000000080000714 <w_mepc>:
    80000714:	fe010113          	addi	sp,sp,-32
    80000718:	00813c23          	sd	s0,24(sp)
    8000071c:	02010413          	addi	s0,sp,32
    80000720:	fea43423          	sd	a0,-24(s0)
    80000724:	fe843783          	ld	a5,-24(s0)
    80000728:	34179073          	csrw	mepc,a5
    8000072c:	00000013          	nop
    80000730:	01813403          	ld	s0,24(sp)
    80000734:	02010113          	addi	sp,sp,32
    80000738:	00008067          	ret

000000008000073c <w_stval>:
    8000073c:	fe010113          	addi	sp,sp,-32
    80000740:	00813c23          	sd	s0,24(sp)
    80000744:	02010413          	addi	s0,sp,32
    80000748:	fea43423          	sd	a0,-24(s0)
    8000074c:	fe843783          	ld	a5,-24(s0)
    80000750:	14379073          	csrw	stval,a5
    80000754:	00000013          	nop
    80000758:	01813403          	ld	s0,24(sp)
    8000075c:	02010113          	addi	sp,sp,32
    80000760:	00008067          	ret

0000000080000764 <w_mtval>:
    80000764:	fe010113          	addi	sp,sp,-32
    80000768:	00813c23          	sd	s0,24(sp)
    8000076c:	02010413          	addi	s0,sp,32
    80000770:	fea43423          	sd	a0,-24(s0)
    80000774:	fe843783          	ld	a5,-24(s0)
    80000778:	34379073          	csrw	mtval,a5
    8000077c:	00000013          	nop
    80000780:	01813403          	ld	s0,24(sp)
    80000784:	02010113          	addi	sp,sp,32
    80000788:	00008067          	ret

000000008000078c <w_stvec>:
    8000078c:	fe010113          	addi	sp,sp,-32
    80000790:	00813c23          	sd	s0,24(sp)
    80000794:	02010413          	addi	s0,sp,32
    80000798:	fea43423          	sd	a0,-24(s0)
    8000079c:	fe843783          	ld	a5,-24(s0)
    800007a0:	10579073          	csrw	stvec,a5
    800007a4:	00000013          	nop
    800007a8:	01813403          	ld	s0,24(sp)
    800007ac:	02010113          	addi	sp,sp,32
    800007b0:	00008067          	ret

00000000800007b4 <w_mtvec>:
    800007b4:	fe010113          	addi	sp,sp,-32
    800007b8:	00813c23          	sd	s0,24(sp)
    800007bc:	02010413          	addi	s0,sp,32
    800007c0:	fea43423          	sd	a0,-24(s0)
    800007c4:	fe843783          	ld	a5,-24(s0)
    800007c8:	30579073          	csrw	mtvec,a5
    800007cc:	00000013          	nop
    800007d0:	01813403          	ld	s0,24(sp)
    800007d4:	02010113          	addi	sp,sp,32
    800007d8:	00008067          	ret

00000000800007dc <w_scause>:
    800007dc:	fe010113          	addi	sp,sp,-32
    800007e0:	00813c23          	sd	s0,24(sp)
    800007e4:	02010413          	addi	s0,sp,32
    800007e8:	fea43423          	sd	a0,-24(s0)
    800007ec:	fe843783          	ld	a5,-24(s0)
    800007f0:	14279073          	csrw	scause,a5
    800007f4:	00000013          	nop
    800007f8:	01813403          	ld	s0,24(sp)
    800007fc:	02010113          	addi	sp,sp,32
    80000800:	00008067          	ret

0000000080000804 <w_mcause>:
    80000804:	fe010113          	addi	sp,sp,-32
    80000808:	00813c23          	sd	s0,24(sp)
    8000080c:	02010413          	addi	s0,sp,32
    80000810:	fea43423          	sd	a0,-24(s0)
    80000814:	fe843783          	ld	a5,-24(s0)
    80000818:	34279073          	csrw	mcause,a5
    8000081c:	00000013          	nop
    80000820:	01813403          	ld	s0,24(sp)
    80000824:	02010113          	addi	sp,sp,32
    80000828:	00008067          	ret

000000008000082c <w_sstatus>:
    8000082c:	fe010113          	addi	sp,sp,-32
    80000830:	00813c23          	sd	s0,24(sp)
    80000834:	02010413          	addi	s0,sp,32
    80000838:	fea43423          	sd	a0,-24(s0)
    8000083c:	fe843783          	ld	a5,-24(s0)
    80000840:	10079073          	csrw	sstatus,a5
    80000844:	00000013          	nop
    80000848:	01813403          	ld	s0,24(sp)
    8000084c:	02010113          	addi	sp,sp,32
    80000850:	00008067          	ret

0000000080000854 <w_mstatus>:
    80000854:	fe010113          	addi	sp,sp,-32
    80000858:	00813c23          	sd	s0,24(sp)
    8000085c:	02010413          	addi	s0,sp,32
    80000860:	fea43423          	sd	a0,-24(s0)
    80000864:	fe843783          	ld	a5,-24(s0)
    80000868:	30079073          	csrw	mstatus,a5
    8000086c:	00000013          	nop
    80000870:	01813403          	ld	s0,24(sp)
    80000874:	02010113          	addi	sp,sp,32
    80000878:	00008067          	ret

000000008000087c <w_mideleg>:
    8000087c:	fe010113          	addi	sp,sp,-32
    80000880:	00813c23          	sd	s0,24(sp)
    80000884:	02010413          	addi	s0,sp,32
    80000888:	fea43423          	sd	a0,-24(s0)
    8000088c:	fe843783          	ld	a5,-24(s0)
    80000890:	30379073          	csrw	mideleg,a5
    80000894:	00000013          	nop
    80000898:	01813403          	ld	s0,24(sp)
    8000089c:	02010113          	addi	sp,sp,32
    800008a0:	00008067          	ret

00000000800008a4 <w_medeleg>:
    800008a4:	fe010113          	addi	sp,sp,-32
    800008a8:	00813c23          	sd	s0,24(sp)
    800008ac:	02010413          	addi	s0,sp,32
    800008b0:	fea43423          	sd	a0,-24(s0)
    800008b4:	fe843783          	ld	a5,-24(s0)
    800008b8:	30279073          	csrw	medeleg,a5
    800008bc:	00000013          	nop
    800008c0:	01813403          	ld	s0,24(sp)
    800008c4:	02010113          	addi	sp,sp,32
    800008c8:	00008067          	ret

00000000800008cc <w_sscratch>:
    800008cc:	fe010113          	addi	sp,sp,-32
    800008d0:	00813c23          	sd	s0,24(sp)
    800008d4:	02010413          	addi	s0,sp,32
    800008d8:	fea43423          	sd	a0,-24(s0)
    800008dc:	fe843783          	ld	a5,-24(s0)
    800008e0:	14079073          	csrw	sscratch,a5
    800008e4:	00000013          	nop
    800008e8:	01813403          	ld	s0,24(sp)
    800008ec:	02010113          	addi	sp,sp,32
    800008f0:	00008067          	ret

00000000800008f4 <w_mscratch>:
    800008f4:	fe010113          	addi	sp,sp,-32
    800008f8:	00813c23          	sd	s0,24(sp)
    800008fc:	02010413          	addi	s0,sp,32
    80000900:	fea43423          	sd	a0,-24(s0)
    80000904:	fe843783          	ld	a5,-24(s0)
    80000908:	34079073          	csrw	mscratch,a5
    8000090c:	00000013          	nop
    80000910:	01813403          	ld	s0,24(sp)
    80000914:	02010113          	addi	sp,sp,32
    80000918:	00008067          	ret

000000008000091c <w_pmpaddr0>:
    8000091c:	fe010113          	addi	sp,sp,-32
    80000920:	00813c23          	sd	s0,24(sp)
    80000924:	02010413          	addi	s0,sp,32
    80000928:	fea43423          	sd	a0,-24(s0)
    8000092c:	fe843783          	ld	a5,-24(s0)
    80000930:	3b079073          	csrw	pmpaddr0,a5
    80000934:	00000013          	nop
    80000938:	01813403          	ld	s0,24(sp)
    8000093c:	02010113          	addi	sp,sp,32
    80000940:	00008067          	ret

0000000080000944 <w_pmpcfg0>:
    80000944:	fe010113          	addi	sp,sp,-32
    80000948:	00813c23          	sd	s0,24(sp)
    8000094c:	02010413          	addi	s0,sp,32
    80000950:	fea43423          	sd	a0,-24(s0)
    80000954:	fe843783          	ld	a5,-24(s0)
    80000958:	3a079073          	csrw	pmpcfg0,a5
    8000095c:	00000013          	nop
    80000960:	01813403          	ld	s0,24(sp)
    80000964:	02010113          	addi	sp,sp,32
    80000968:	00008067          	ret

000000008000096c <main>:
    8000096c:	fd010113          	addi	sp,sp,-48
    80000970:	02113423          	sd	ra,40(sp)
    80000974:	02813023          	sd	s0,32(sp)
    80000978:	03010413          	addi	s0,sp,48
    8000097c:	0d8000ef          	jal	ra,80000a54 <uart_init>
    80000980:	071020ef          	jal	ra,800031f0 <plic_init>
    80000984:	099020ef          	jal	ra,8000321c <plic_init_hart>
    80000988:	6b9000ef          	jal	ra,80001840 <kinit>
    8000098c:	390000ef          	jal	ra,80000d1c <kvm_init>
    80000990:	4d4000ef          	jal	ra,80000e64 <kvm_flush_hart>
    80000994:	fd440793          	addi	a5,s0,-44
    80000998:	00078513          	mv	a0,a5
    8000099c:	451000ef          	jal	ra,800015ec <uvm_alloc>
    800009a0:	fea43423          	sd	a0,-24(s0)
    800009a4:	fd440793          	addi	a5,s0,-44
    800009a8:	00078513          	mv	a0,a5
    800009ac:	441000ef          	jal	ra,800015ec <uvm_alloc>
    800009b0:	fea43023          	sd	a0,-32(s0)
    800009b4:	fd440793          	addi	a5,s0,-44
    800009b8:	00078513          	mv	a0,a5
    800009bc:	74d000ef          	jal	ra,80001908 <kalloc>
    800009c0:	00050793          	mv	a5,a0
    800009c4:	fcf43c23          	sd	a5,-40(s0)
    800009c8:	fd843703          	ld	a4,-40(s0)
    800009cc:	000017b7          	lui	a5,0x1
    800009d0:	00f706b3          	add	a3,a4,a5
    800009d4:	fd440793          	addi	a5,s0,-44
    800009d8:	00000813          	li	a6,0
    800009dc:	00200713          	li	a4,2
    800009e0:	fd843603          	ld	a2,-40(s0)
    800009e4:	00000593          	li	a1,0
    800009e8:	fe843503          	ld	a0,-24(s0)
    800009ec:	538000ef          	jal	ra,80000f24 <uvm_map>
    800009f0:	fd843703          	ld	a4,-40(s0)
    800009f4:	000017b7          	lui	a5,0x1
    800009f8:	00f706b3          	add	a3,a4,a5
    800009fc:	fd440793          	addi	a5,s0,-44
    80000a00:	00100813          	li	a6,1
    80000a04:	00200713          	li	a4,2
    80000a08:	fd843603          	ld	a2,-40(s0)
    80000a0c:	00000593          	li	a1,0
    80000a10:	fe043503          	ld	a0,-32(s0)
    80000a14:	510000ef          	jal	ra,80000f24 <uvm_map>
    80000a18:	fe843503          	ld	a0,-24(s0)
    80000a1c:	395000ef          	jal	ra,800015b0 <free_pagetable>
    80000a20:	fe043503          	ld	a0,-32(s0)
    80000a24:	38d000ef          	jal	ra,800015b0 <free_pagetable>
    80000a28:	fe843783          	ld	a5,-24(s0)
    80000a2c:	fd440713          	addi	a4,s0,-44
    80000a30:	00070593          	mv	a1,a4
    80000a34:	00078513          	mv	a0,a5
    80000a38:	054010ef          	jal	ra,80001a8c <kfree>
    80000a3c:	fe043783          	ld	a5,-32(s0)
    80000a40:	fd440713          	addi	a4,s0,-44
    80000a44:	00070593          	mv	a1,a4
    80000a48:	00078513          	mv	a0,a5
    80000a4c:	040010ef          	jal	ra,80001a8c <kfree>
    80000a50:	0000006f          	j	80000a50 <main+0xe4>

0000000080000a54 <uart_init>:
    80000a54:	ff010113          	addi	sp,sp,-16
    80000a58:	00813423          	sd	s0,8(sp)
    80000a5c:	01010413          	addi	s0,sp,16
    80000a60:	100007b7          	lui	a5,0x10000
    80000a64:	00178793          	addi	a5,a5,1 # 10000001 <_start-0x6fffffff>
    80000a68:	00078023          	sb	zero,0(a5)
    80000a6c:	100007b7          	lui	a5,0x10000
    80000a70:	00378793          	addi	a5,a5,3 # 10000003 <_start-0x6ffffffd>
    80000a74:	f8000713          	li	a4,-128
    80000a78:	00e78023          	sb	a4,0(a5)
    80000a7c:	100007b7          	lui	a5,0x10000
    80000a80:	00300713          	li	a4,3
    80000a84:	00e78023          	sb	a4,0(a5) # 10000000 <_start-0x70000000>
    80000a88:	100007b7          	lui	a5,0x10000
    80000a8c:	00178793          	addi	a5,a5,1 # 10000001 <_start-0x6fffffff>
    80000a90:	00078023          	sb	zero,0(a5)
    80000a94:	100007b7          	lui	a5,0x10000
    80000a98:	00378793          	addi	a5,a5,3 # 10000003 <_start-0x6ffffffd>
    80000a9c:	00300713          	li	a4,3
    80000aa0:	00e78023          	sb	a4,0(a5)
    80000aa4:	100007b7          	lui	a5,0x10000
    80000aa8:	00278793          	addi	a5,a5,2 # 10000002 <_start-0x6ffffffe>
    80000aac:	00700713          	li	a4,7
    80000ab0:	00e78023          	sb	a4,0(a5)
    80000ab4:	100007b7          	lui	a5,0x10000
    80000ab8:	00178793          	addi	a5,a5,1 # 10000001 <_start-0x6fffffff>
    80000abc:	00300713          	li	a4,3
    80000ac0:	00e78023          	sb	a4,0(a5)
    80000ac4:	00000013          	nop
    80000ac8:	00813403          	ld	s0,8(sp)
    80000acc:	01010113          	addi	sp,sp,16
    80000ad0:	00008067          	ret

0000000080000ad4 <uart_putc_sync>:
    80000ad4:	fd010113          	addi	sp,sp,-48
    80000ad8:	02813423          	sd	s0,40(sp)
    80000adc:	03010413          	addi	s0,sp,48
    80000ae0:	00050793          	mv	a5,a0
    80000ae4:	fcf40fa3          	sb	a5,-33(s0)
    80000ae8:	fe0407a3          	sb	zero,-17(s0)
    80000aec:	00000013          	nop
    80000af0:	100007b7          	lui	a5,0x10000
    80000af4:	00578793          	addi	a5,a5,5 # 10000005 <_start-0x6ffffffb>
    80000af8:	0007c783          	lbu	a5,0(a5)
    80000afc:	fef407a3          	sb	a5,-17(s0)
    80000b00:	fef44783          	lbu	a5,-17(s0)
    80000b04:	0007879b          	sext.w	a5,a5
    80000b08:	0207f793          	andi	a5,a5,32
    80000b0c:	0007879b          	sext.w	a5,a5
    80000b10:	fe0780e3          	beqz	a5,80000af0 <uart_putc_sync+0x1c>
    80000b14:	100007b7          	lui	a5,0x10000
    80000b18:	fdf44703          	lbu	a4,-33(s0)
    80000b1c:	00e78023          	sb	a4,0(a5) # 10000000 <_start-0x70000000>
    80000b20:	00000013          	nop
    80000b24:	02813403          	ld	s0,40(sp)
    80000b28:	03010113          	addi	sp,sp,48
    80000b2c:	00008067          	ret

0000000080000b30 <uart_getchar>:
    80000b30:	ff010113          	addi	sp,sp,-16
    80000b34:	00813423          	sd	s0,8(sp)
    80000b38:	01010413          	addi	s0,sp,16
    80000b3c:	100007b7          	lui	a5,0x10000
    80000b40:	00578793          	addi	a5,a5,5 # 10000005 <_start-0x6ffffffb>
    80000b44:	0007c783          	lbu	a5,0(a5)
    80000b48:	0007879b          	sext.w	a5,a5
    80000b4c:	0017f793          	andi	a5,a5,1
    80000b50:	0007879b          	sext.w	a5,a5
    80000b54:	00078a63          	beqz	a5,80000b68 <uart_getchar+0x38>
    80000b58:	100007b7          	lui	a5,0x10000
    80000b5c:	0007c783          	lbu	a5,0(a5) # 10000000 <_start-0x70000000>
    80000b60:	0007879b          	sext.w	a5,a5
    80000b64:	0080006f          	j	80000b6c <uart_getchar+0x3c>
    80000b68:	fff00793          	li	a5,-1
    80000b6c:	00078513          	mv	a0,a5
    80000b70:	00813403          	ld	s0,8(sp)
    80000b74:	01010113          	addi	sp,sp,16
    80000b78:	00008067          	ret

0000000080000b7c <uart_putc>:
    80000b7c:	fe010113          	addi	sp,sp,-32
    80000b80:	00113c23          	sd	ra,24(sp)
    80000b84:	00813823          	sd	s0,16(sp)
    80000b88:	02010413          	addi	s0,sp,32
    80000b8c:	00050793          	mv	a5,a0
    80000b90:	fef407a3          	sb	a5,-17(s0)
    80000b94:	788020ef          	jal	ra,8000331c <push_on>
    80000b98:	0080006f          	j	80000ba0 <uart_putc+0x24>
    80000b9c:	780020ef          	jal	ra,8000331c <push_on>
    80000ba0:	00003797          	auipc	a5,0x3
    80000ba4:	77c78793          	addi	a5,a5,1916 # 8000431c <output_r>
    80000ba8:	0007a783          	lw	a5,0(a5)
    80000bac:	0807879b          	addiw	a5,a5,128
    80000bb0:	0007871b          	sext.w	a4,a5
    80000bb4:	00003797          	auipc	a5,0x3
    80000bb8:	76478793          	addi	a5,a5,1892 # 80004318 <output_w>
    80000bbc:	0007a783          	lw	a5,0(a5)
    80000bc0:	fcf77ee3          	bgeu	a4,a5,80000b9c <uart_putc+0x20>
    80000bc4:	00003797          	auipc	a5,0x3
    80000bc8:	75478793          	addi	a5,a5,1876 # 80004318 <output_w>
    80000bcc:	0007a783          	lw	a5,0(a5)
    80000bd0:	0007879b          	sext.w	a5,a5
    80000bd4:	0017871b          	addiw	a4,a5,1
    80000bd8:	0007069b          	sext.w	a3,a4
    80000bdc:	00003717          	auipc	a4,0x3
    80000be0:	73c70713          	addi	a4,a4,1852 # 80004318 <output_w>
    80000be4:	00d72023          	sw	a3,0(a4)
    80000be8:	07f7f793          	andi	a5,a5,127
    80000bec:	0007879b          	sext.w	a5,a5
    80000bf0:	0000c717          	auipc	a4,0xc
    80000bf4:	78070713          	addi	a4,a4,1920 # 8000d370 <output_buffer>
    80000bf8:	02079793          	slli	a5,a5,0x20
    80000bfc:	0207d793          	srli	a5,a5,0x20
    80000c00:	00f707b3          	add	a5,a4,a5
    80000c04:	fef44703          	lbu	a4,-17(s0)
    80000c08:	00e78023          	sb	a4,0(a5)
    80000c0c:	784020ef          	jal	ra,80003390 <pop_off>
    80000c10:	00000013          	nop
    80000c14:	01813083          	ld	ra,24(sp)
    80000c18:	01013403          	ld	s0,16(sp)
    80000c1c:	02010113          	addi	sp,sp,32
    80000c20:	00008067          	ret

0000000080000c24 <uart_out_intr>:
    80000c24:	fe010113          	addi	sp,sp,-32
    80000c28:	00813c23          	sd	s0,24(sp)
    80000c2c:	02010413          	addi	s0,sp,32
    80000c30:	06c0006f          	j	80000c9c <uart_out_intr+0x78>
    80000c34:	100007b7          	lui	a5,0x10000
    80000c38:	00578793          	addi	a5,a5,5 # 10000005 <_start-0x6ffffffb>
    80000c3c:	0007c783          	lbu	a5,0(a5)
    80000c40:	0007879b          	sext.w	a5,a5
    80000c44:	0207f793          	andi	a5,a5,32
    80000c48:	0007879b          	sext.w	a5,a5
    80000c4c:	06078863          	beqz	a5,80000cbc <uart_out_intr+0x98>
    80000c50:	00003797          	auipc	a5,0x3
    80000c54:	6cc78793          	addi	a5,a5,1740 # 8000431c <output_r>
    80000c58:	0007a783          	lw	a5,0(a5)
    80000c5c:	0007879b          	sext.w	a5,a5
    80000c60:	0017871b          	addiw	a4,a5,1
    80000c64:	0007069b          	sext.w	a3,a4
    80000c68:	00003717          	auipc	a4,0x3
    80000c6c:	6b470713          	addi	a4,a4,1716 # 8000431c <output_r>
    80000c70:	00d72023          	sw	a3,0(a4)
    80000c74:	0000c717          	auipc	a4,0xc
    80000c78:	6fc70713          	addi	a4,a4,1788 # 8000d370 <output_buffer>
    80000c7c:	02079793          	slli	a5,a5,0x20
    80000c80:	0207d793          	srli	a5,a5,0x20
    80000c84:	00f707b3          	add	a5,a4,a5
    80000c88:	0007c783          	lbu	a5,0(a5)
    80000c8c:	fef407a3          	sb	a5,-17(s0)
    80000c90:	100007b7          	lui	a5,0x10000
    80000c94:	fef44703          	lbu	a4,-17(s0)
    80000c98:	00e78023          	sb	a4,0(a5) # 10000000 <_start-0x70000000>
    80000c9c:	00003797          	auipc	a5,0x3
    80000ca0:	68078793          	addi	a5,a5,1664 # 8000431c <output_r>
    80000ca4:	0007a703          	lw	a4,0(a5)
    80000ca8:	00003797          	auipc	a5,0x3
    80000cac:	67078793          	addi	a5,a5,1648 # 80004318 <output_w>
    80000cb0:	0007a783          	lw	a5,0(a5)
    80000cb4:	f8f710e3          	bne	a4,a5,80000c34 <uart_out_intr+0x10>
    80000cb8:	0080006f          	j	80000cc0 <uart_out_intr+0x9c>
    80000cbc:	00000013          	nop
    80000cc0:	00000013          	nop
    80000cc4:	01813403          	ld	s0,24(sp)
    80000cc8:	02010113          	addi	sp,sp,32
    80000ccc:	00008067          	ret

0000000080000cd0 <uart_int_handler>:
    80000cd0:	fe010113          	addi	sp,sp,-32
    80000cd4:	00113c23          	sd	ra,24(sp)
    80000cd8:	00813823          	sd	s0,16(sp)
    80000cdc:	02010413          	addi	s0,sp,32
    80000ce0:	e51ff0ef          	jal	ra,80000b30 <uart_getchar>
    80000ce4:	00050793          	mv	a5,a0
    80000ce8:	fef42623          	sw	a5,-20(s0)
    80000cec:	fec42783          	lw	a5,-20(s0)
    80000cf0:	0007871b          	sext.w	a4,a5
    80000cf4:	fff00793          	li	a5,-1
    80000cf8:	00f70463          	beq	a4,a5,80000d00 <uart_int_handler+0x30>
    80000cfc:	fe5ff06f          	j	80000ce0 <uart_int_handler+0x10>
    80000d00:	00000013          	nop
    80000d04:	f21ff0ef          	jal	ra,80000c24 <uart_out_intr>
    80000d08:	00000013          	nop
    80000d0c:	01813083          	ld	ra,24(sp)
    80000d10:	01013403          	ld	s0,16(sp)
    80000d14:	02010113          	addi	sp,sp,32
    80000d18:	00008067          	ret

0000000080000d1c <kvm_init>:
    80000d1c:	fe010113          	addi	sp,sp,-32
    80000d20:	00113c23          	sd	ra,24(sp)
    80000d24:	00813823          	sd	s0,16(sp)
    80000d28:	02010413          	addi	s0,sp,32
    80000d2c:	fec40793          	addi	a5,s0,-20
    80000d30:	00078513          	mv	a0,a5
    80000d34:	3d5000ef          	jal	ra,80001908 <kalloc>
    80000d38:	00050713          	mv	a4,a0
    80000d3c:	00003797          	auipc	a5,0x3
    80000d40:	56478793          	addi	a5,a5,1380 # 800042a0 <kernel_pgt>
    80000d44:	00e7b023          	sd	a4,0(a5)
    80000d48:	fec42783          	lw	a5,-20(s0)
    80000d4c:	00078863          	beqz	a5,80000d5c <kvm_init+0x40>
    80000d50:	00003517          	auipc	a0,0x3
    80000d54:	2b050513          	addi	a0,a0,688 # 80004000 <textEnd>
    80000d58:	3f4020ef          	jal	ra,8000314c <panic>
    80000d5c:	00003797          	auipc	a5,0x3
    80000d60:	54478793          	addi	a5,a5,1348 # 800042a0 <kernel_pgt>
    80000d64:	0007b503          	ld	a0,0(a5)
    80000d68:	00003797          	auipc	a5,0x3
    80000d6c:	29878793          	addi	a5,a5,664 # 80004000 <textEnd>
    80000d70:	00a00713          	li	a4,10
    80000d74:	00078693          	mv	a3,a5
    80000d78:	00100793          	li	a5,1
    80000d7c:	01f79613          	slli	a2,a5,0x1f
    80000d80:	00100793          	li	a5,1
    80000d84:	01f79593          	slli	a1,a5,0x1f
    80000d88:	12c000ef          	jal	ra,80000eb4 <kvm_map>
    80000d8c:	00003797          	auipc	a5,0x3
    80000d90:	51478793          	addi	a5,a5,1300 # 800042a0 <kernel_pgt>
    80000d94:	0007b503          	ld	a0,0(a5)
    80000d98:	00003597          	auipc	a1,0x3
    80000d9c:	26858593          	addi	a1,a1,616 # 80004000 <textEnd>
    80000da0:	00003617          	auipc	a2,0x3
    80000da4:	26060613          	addi	a2,a2,608 # 80004000 <textEnd>
    80000da8:	0000d717          	auipc	a4,0xd
    80000dac:	a4870713          	addi	a4,a4,-1464 # 8000d7f0 <end>
    80000db0:	000017b7          	lui	a5,0x1
    80000db4:	00f707b3          	add	a5,a4,a5
    80000db8:	00600713          	li	a4,6
    80000dbc:	00078693          	mv	a3,a5
    80000dc0:	0f4000ef          	jal	ra,80000eb4 <kvm_map>
    80000dc4:	00003797          	auipc	a5,0x3
    80000dc8:	4dc78793          	addi	a5,a5,1244 # 800042a0 <kernel_pgt>
    80000dcc:	0007b503          	ld	a0,0(a5)
    80000dd0:	0000d717          	auipc	a4,0xd
    80000dd4:	a2070713          	addi	a4,a4,-1504 # 8000d7f0 <end>
    80000dd8:	000017b7          	lui	a5,0x1
    80000ddc:	00f705b3          	add	a1,a4,a5
    80000de0:	0000d717          	auipc	a4,0xd
    80000de4:	a1070713          	addi	a4,a4,-1520 # 8000d7f0 <end>
    80000de8:	000017b7          	lui	a5,0x1
    80000dec:	00f70633          	add	a2,a4,a5
    80000df0:	00003797          	auipc	a5,0x3
    80000df4:	2a878793          	addi	a5,a5,680 # 80004098 <textEnd+0x98>
    80000df8:	0007b783          	ld	a5,0(a5)
    80000dfc:	00600713          	li	a4,6
    80000e00:	00078693          	mv	a3,a5
    80000e04:	0b0000ef          	jal	ra,80000eb4 <kvm_map>
    80000e08:	00003797          	auipc	a5,0x3
    80000e0c:	49878793          	addi	a5,a5,1176 # 800042a0 <kernel_pgt>
    80000e10:	0007b783          	ld	a5,0(a5)
    80000e14:	00600713          	li	a4,6
    80000e18:	100016b7          	lui	a3,0x10001
    80000e1c:	10000637          	lui	a2,0x10000
    80000e20:	100005b7          	lui	a1,0x10000
    80000e24:	00078513          	mv	a0,a5
    80000e28:	08c000ef          	jal	ra,80000eb4 <kvm_map>
    80000e2c:	00003797          	auipc	a5,0x3
    80000e30:	47478793          	addi	a5,a5,1140 # 800042a0 <kernel_pgt>
    80000e34:	0007b783          	ld	a5,0(a5)
    80000e38:	00600713          	li	a4,6
    80000e3c:	100006b7          	lui	a3,0x10000
    80000e40:	0c000637          	lui	a2,0xc000
    80000e44:	0c0005b7          	lui	a1,0xc000
    80000e48:	00078513          	mv	a0,a5
    80000e4c:	068000ef          	jal	ra,80000eb4 <kvm_map>
    80000e50:	00000013          	nop
    80000e54:	01813083          	ld	ra,24(sp)
    80000e58:	01013403          	ld	s0,16(sp)
    80000e5c:	02010113          	addi	sp,sp,32
    80000e60:	00008067          	ret

0000000080000e64 <kvm_flush_hart>:
    80000e64:	ff010113          	addi	sp,sp,-16
    80000e68:	00113423          	sd	ra,8(sp)
    80000e6c:	00813023          	sd	s0,0(sp)
    80000e70:	01010413          	addi	s0,sp,16
    80000e74:	b70ff0ef          	jal	ra,800001e4 <sfence>
    80000e78:	00003797          	auipc	a5,0x3
    80000e7c:	42878793          	addi	a5,a5,1064 # 800042a0 <kernel_pgt>
    80000e80:	0007b783          	ld	a5,0(a5)
    80000e84:	00c7d713          	srli	a4,a5,0xc
    80000e88:	fff00793          	li	a5,-1
    80000e8c:	03f79793          	slli	a5,a5,0x3f
    80000e90:	00f767b3          	or	a5,a4,a5
    80000e94:	00078513          	mv	a0,a5
    80000e98:	82dff0ef          	jal	ra,800006c4 <w_satp>
    80000e9c:	b48ff0ef          	jal	ra,800001e4 <sfence>
    80000ea0:	00000013          	nop
    80000ea4:	00813083          	ld	ra,8(sp)
    80000ea8:	00013403          	ld	s0,0(sp)
    80000eac:	01010113          	addi	sp,sp,16
    80000eb0:	00008067          	ret

0000000080000eb4 <kvm_map>:
    80000eb4:	fb010113          	addi	sp,sp,-80
    80000eb8:	04113423          	sd	ra,72(sp)
    80000ebc:	04813023          	sd	s0,64(sp)
    80000ec0:	05010413          	addi	s0,sp,80
    80000ec4:	fca43c23          	sd	a0,-40(s0)
    80000ec8:	fcb43823          	sd	a1,-48(s0)
    80000ecc:	fcc43423          	sd	a2,-56(s0)
    80000ed0:	fcd43023          	sd	a3,-64(s0)
    80000ed4:	00070793          	mv	a5,a4
    80000ed8:	faf42e23          	sw	a5,-68(s0)
    80000edc:	fec40793          	addi	a5,s0,-20
    80000ee0:	fbc42703          	lw	a4,-68(s0)
    80000ee4:	00000813          	li	a6,0
    80000ee8:	fc043683          	ld	a3,-64(s0)
    80000eec:	fc843603          	ld	a2,-56(s0)
    80000ef0:	fd043583          	ld	a1,-48(s0)
    80000ef4:	fd843503          	ld	a0,-40(s0)
    80000ef8:	0a0000ef          	jal	ra,80000f98 <mmap>
    80000efc:	fec42783          	lw	a5,-20(s0)
    80000f00:	00078863          	beqz	a5,80000f10 <kvm_map+0x5c>
    80000f04:	00003517          	auipc	a0,0x3
    80000f08:	12450513          	addi	a0,a0,292 # 80004028 <textEnd+0x28>
    80000f0c:	240020ef          	jal	ra,8000314c <panic>
    80000f10:	00000013          	nop
    80000f14:	04813083          	ld	ra,72(sp)
    80000f18:	04013403          	ld	s0,64(sp)
    80000f1c:	05010113          	addi	sp,sp,80
    80000f20:	00008067          	ret

0000000080000f24 <uvm_map>:
    80000f24:	fc010113          	addi	sp,sp,-64
    80000f28:	02113c23          	sd	ra,56(sp)
    80000f2c:	02813823          	sd	s0,48(sp)
    80000f30:	04010413          	addi	s0,sp,64
    80000f34:	fea43423          	sd	a0,-24(s0)
    80000f38:	feb43023          	sd	a1,-32(s0)
    80000f3c:	fcc43c23          	sd	a2,-40(s0)
    80000f40:	fcd43823          	sd	a3,-48(s0)
    80000f44:	00070693          	mv	a3,a4
    80000f48:	fcf43023          	sd	a5,-64(s0)
    80000f4c:	00080713          	mv	a4,a6
    80000f50:	00068793          	mv	a5,a3
    80000f54:	fcf42623          	sw	a5,-52(s0)
    80000f58:	00070793          	mv	a5,a4
    80000f5c:	fcf42423          	sw	a5,-56(s0)
    80000f60:	fc842783          	lw	a5,-56(s0)
    80000f64:	fcc42703          	lw	a4,-52(s0)
    80000f68:	00078813          	mv	a6,a5
    80000f6c:	fc043783          	ld	a5,-64(s0)
    80000f70:	fd043683          	ld	a3,-48(s0)
    80000f74:	fd843603          	ld	a2,-40(s0)
    80000f78:	fe043583          	ld	a1,-32(s0)
    80000f7c:	fe843503          	ld	a0,-24(s0)
    80000f80:	018000ef          	jal	ra,80000f98 <mmap>
    80000f84:	00000013          	nop
    80000f88:	03813083          	ld	ra,56(sp)
    80000f8c:	03013403          	ld	s0,48(sp)
    80000f90:	04010113          	addi	sp,sp,64
    80000f94:	00008067          	ret

0000000080000f98 <mmap>:
    80000f98:	fa010113          	addi	sp,sp,-96
    80000f9c:	04113c23          	sd	ra,88(sp)
    80000fa0:	04813823          	sd	s0,80(sp)
    80000fa4:	06010413          	addi	s0,sp,96
    80000fa8:	fca43423          	sd	a0,-56(s0)
    80000fac:	fcb43023          	sd	a1,-64(s0)
    80000fb0:	fac43c23          	sd	a2,-72(s0)
    80000fb4:	fad43823          	sd	a3,-80(s0)
    80000fb8:	00070693          	mv	a3,a4
    80000fbc:	faf43023          	sd	a5,-96(s0)
    80000fc0:	00080713          	mv	a4,a6
    80000fc4:	00068793          	mv	a5,a3
    80000fc8:	faf42623          	sw	a5,-84(s0)
    80000fcc:	00070793          	mv	a5,a4
    80000fd0:	faf42423          	sw	a5,-88(s0)
    80000fd4:	fc043703          	ld	a4,-64(s0)
    80000fd8:	fffff7b7          	lui	a5,0xfffff
    80000fdc:	00f777b3          	and	a5,a4,a5
    80000fe0:	fef43423          	sd	a5,-24(s0)
    80000fe4:	fb843703          	ld	a4,-72(s0)
    80000fe8:	fffff7b7          	lui	a5,0xfffff
    80000fec:	00f777b3          	and	a5,a4,a5
    80000ff0:	fef43023          	sd	a5,-32(s0)
    80000ff4:	fb043703          	ld	a4,-80(s0)
    80000ff8:	fffff7b7          	lui	a5,0xfffff
    80000ffc:	00f777b3          	and	a5,a4,a5
    80001000:	faf43823          	sd	a5,-80(s0)
    80001004:	0ac0006f          	j	800010b0 <mmap+0x118>
    80001008:	fa043683          	ld	a3,-96(s0)
    8000100c:	00100613          	li	a2,1
    80001010:	fe843583          	ld	a1,-24(s0)
    80001014:	fc843503          	ld	a0,-56(s0)
    80001018:	0c4000ef          	jal	ra,800010dc <walk>
    8000101c:	fca43c23          	sd	a0,-40(s0)
    80001020:	fd843783          	ld	a5,-40(s0)
    80001024:	0a078263          	beqz	a5,800010c8 <mmap+0x130>
    80001028:	fd843783          	ld	a5,-40(s0)
    8000102c:	0007b783          	ld	a5,0(a5) # fffffffffffff000 <end+0xffffffff7fff1810>
    80001030:	0017f793          	andi	a5,a5,1
    80001034:	00078a63          	beqz	a5,80001048 <mmap+0xb0>
    80001038:	fa043783          	ld	a5,-96(s0)
    8000103c:	00400713          	li	a4,4
    80001040:	00e7a023          	sw	a4,0(a5)
    80001044:	0880006f          	j	800010cc <mmap+0x134>
    80001048:	fe043783          	ld	a5,-32(s0)
    8000104c:	00c7d793          	srli	a5,a5,0xc
    80001050:	00a79713          	slli	a4,a5,0xa
    80001054:	fd843783          	ld	a5,-40(s0)
    80001058:	00e7b023          	sd	a4,0(a5)
    8000105c:	fa842783          	lw	a5,-88(s0)
    80001060:	0007879b          	sext.w	a5,a5
    80001064:	00078663          	beqz	a5,80001070 <mmap+0xd8>
    80001068:	fe043503          	ld	a0,-32(s0)
    8000106c:	385000ef          	jal	ra,80001bf0 <kbit_index_add>
    80001070:	fd843783          	ld	a5,-40(s0)
    80001074:	0007b783          	ld	a5,0(a5)
    80001078:	fac42703          	lw	a4,-84(s0)
    8000107c:	00176713          	ori	a4,a4,1
    80001080:	0007071b          	sext.w	a4,a4
    80001084:	00e7e733          	or	a4,a5,a4
    80001088:	fd843783          	ld	a5,-40(s0)
    8000108c:	00e7b023          	sd	a4,0(a5)
    80001090:	fe843703          	ld	a4,-24(s0)
    80001094:	000017b7          	lui	a5,0x1
    80001098:	00f707b3          	add	a5,a4,a5
    8000109c:	fef43423          	sd	a5,-24(s0)
    800010a0:	fe043703          	ld	a4,-32(s0)
    800010a4:	000017b7          	lui	a5,0x1
    800010a8:	00f707b3          	add	a5,a4,a5
    800010ac:	fef43023          	sd	a5,-32(s0)
    800010b0:	fe043703          	ld	a4,-32(s0)
    800010b4:	fb043783          	ld	a5,-80(s0)
    800010b8:	f4f768e3          	bltu	a4,a5,80001008 <mmap+0x70>
    800010bc:	fa043783          	ld	a5,-96(s0)
    800010c0:	0007a023          	sw	zero,0(a5) # 1000 <_start-0x7ffff000>
    800010c4:	0080006f          	j	800010cc <mmap+0x134>
    800010c8:	00000013          	nop
    800010cc:	05813083          	ld	ra,88(sp)
    800010d0:	05013403          	ld	s0,80(sp)
    800010d4:	06010113          	addi	sp,sp,96
    800010d8:	00008067          	ret

00000000800010dc <walk>:
    800010dc:	fb010113          	addi	sp,sp,-80
    800010e0:	04113423          	sd	ra,72(sp)
    800010e4:	04813023          	sd	s0,64(sp)
    800010e8:	05010413          	addi	s0,sp,80
    800010ec:	fca43423          	sd	a0,-56(s0)
    800010f0:	fcb43023          	sd	a1,-64(s0)
    800010f4:	00060793          	mv	a5,a2
    800010f8:	fad43823          	sd	a3,-80(s0)
    800010fc:	faf42e23          	sw	a5,-68(s0)
    80001100:	fc043703          	ld	a4,-64(s0)
    80001104:	fff00793          	li	a5,-1
    80001108:	0197d793          	srli	a5,a5,0x19
    8000110c:	00e7f863          	bgeu	a5,a4,8000111c <walk+0x40>
    80001110:	00003517          	auipc	a0,0x3
    80001114:	f3850513          	addi	a0,a0,-200 # 80004048 <textEnd+0x48>
    80001118:	034020ef          	jal	ra,8000314c <panic>
    8000111c:	fc843783          	ld	a5,-56(s0)
    80001120:	fef43423          	sd	a5,-24(s0)
    80001124:	00200793          	li	a5,2
    80001128:	fef42223          	sw	a5,-28(s0)
    8000112c:	0e80006f          	j	80001214 <walk+0x138>
    80001130:	fe442703          	lw	a4,-28(s0)
    80001134:	00070793          	mv	a5,a4
    80001138:	0037979b          	slliw	a5,a5,0x3
    8000113c:	00e787bb          	addw	a5,a5,a4
    80001140:	0007879b          	sext.w	a5,a5
    80001144:	00c7879b          	addiw	a5,a5,12
    80001148:	0007879b          	sext.w	a5,a5
    8000114c:	00078713          	mv	a4,a5
    80001150:	fc043783          	ld	a5,-64(s0)
    80001154:	00e7d7b3          	srl	a5,a5,a4
    80001158:	0007879b          	sext.w	a5,a5
    8000115c:	1ff7f793          	andi	a5,a5,511
    80001160:	fef42023          	sw	a5,-32(s0)
    80001164:	fe042783          	lw	a5,-32(s0)
    80001168:	00379793          	slli	a5,a5,0x3
    8000116c:	fe843703          	ld	a4,-24(s0)
    80001170:	00f707b3          	add	a5,a4,a5
    80001174:	fcf43c23          	sd	a5,-40(s0)
    80001178:	fd843783          	ld	a5,-40(s0)
    8000117c:	0007b783          	ld	a5,0(a5)
    80001180:	0017f793          	andi	a5,a5,1
    80001184:	00078e63          	beqz	a5,800011a0 <walk+0xc4>
    80001188:	fd843783          	ld	a5,-40(s0)
    8000118c:	0007b783          	ld	a5,0(a5)
    80001190:	00a7d793          	srli	a5,a5,0xa
    80001194:	00c79793          	slli	a5,a5,0xc
    80001198:	fef43423          	sd	a5,-24(s0)
    8000119c:	06c0006f          	j	80001208 <walk+0x12c>
    800011a0:	fbc42783          	lw	a5,-68(s0)
    800011a4:	0007879b          	sext.w	a5,a5
    800011a8:	00078c63          	beqz	a5,800011c0 <walk+0xe4>
    800011ac:	fb043503          	ld	a0,-80(s0)
    800011b0:	758000ef          	jal	ra,80001908 <kalloc>
    800011b4:	fea43423          	sd	a0,-24(s0)
    800011b8:	fe843783          	ld	a5,-24(s0)
    800011bc:	02079a63          	bnez	a5,800011f0 <walk+0x114>
    800011c0:	fbc42783          	lw	a5,-68(s0)
    800011c4:	0007879b          	sext.w	a5,a5
    800011c8:	00078a63          	beqz	a5,800011dc <walk+0x100>
    800011cc:	fb043783          	ld	a5,-80(s0)
    800011d0:	00200713          	li	a4,2
    800011d4:	00e7a023          	sw	a4,0(a5)
    800011d8:	0100006f          	j	800011e8 <walk+0x10c>
    800011dc:	fb043783          	ld	a5,-80(s0)
    800011e0:	00300713          	li	a4,3
    800011e4:	00e7a023          	sw	a4,0(a5)
    800011e8:	00000793          	li	a5,0
    800011ec:	0580006f          	j	80001244 <walk+0x168>
    800011f0:	fe843783          	ld	a5,-24(s0)
    800011f4:	00c7d793          	srli	a5,a5,0xc
    800011f8:	00a79793          	slli	a5,a5,0xa
    800011fc:	0017e713          	ori	a4,a5,1
    80001200:	fd843783          	ld	a5,-40(s0)
    80001204:	00e7b023          	sd	a4,0(a5)
    80001208:	fe442783          	lw	a5,-28(s0)
    8000120c:	fff7879b          	addiw	a5,a5,-1
    80001210:	fef42223          	sw	a5,-28(s0)
    80001214:	fe442783          	lw	a5,-28(s0)
    80001218:	0007879b          	sext.w	a5,a5
    8000121c:	f0f04ae3          	bgtz	a5,80001130 <walk+0x54>
    80001220:	fb043783          	ld	a5,-80(s0)
    80001224:	0007a023          	sw	zero,0(a5)
    80001228:	fc043783          	ld	a5,-64(s0)
    8000122c:	00c7d793          	srli	a5,a5,0xc
    80001230:	0007879b          	sext.w	a5,a5
    80001234:	1ff7f793          	andi	a5,a5,511
    80001238:	00379793          	slli	a5,a5,0x3
    8000123c:	fe843703          	ld	a4,-24(s0)
    80001240:	00f707b3          	add	a5,a4,a5
    80001244:	00078513          	mv	a0,a5
    80001248:	04813083          	ld	ra,72(sp)
    8000124c:	04013403          	ld	s0,64(sp)
    80001250:	05010113          	addi	sp,sp,80
    80001254:	00008067          	ret

0000000080001258 <free_pte_rec>:
    80001258:	fd010113          	addi	sp,sp,-48
    8000125c:	02113423          	sd	ra,40(sp)
    80001260:	02813023          	sd	s0,32(sp)
    80001264:	03010413          	addi	s0,sp,48
    80001268:	fca43c23          	sd	a0,-40(s0)
    8000126c:	00058793          	mv	a5,a1
    80001270:	fcf42a23          	sw	a5,-44(s0)
    80001274:	fd442783          	lw	a5,-44(s0)
    80001278:	0007871b          	sext.w	a4,a5
    8000127c:	00200793          	li	a5,2
    80001280:	08f71663          	bne	a4,a5,8000130c <free_pte_rec+0xb4>
    80001284:	fe042623          	sw	zero,-20(s0)
    80001288:	0700006f          	j	800012f8 <free_pte_rec+0xa0>
    8000128c:	fec42783          	lw	a5,-20(s0)
    80001290:	00379793          	slli	a5,a5,0x3
    80001294:	fd843703          	ld	a4,-40(s0)
    80001298:	00f707b3          	add	a5,a4,a5
    8000129c:	0007b783          	ld	a5,0(a5)
    800012a0:	0017f793          	andi	a5,a5,1
    800012a4:	04078463          	beqz	a5,800012ec <free_pte_rec+0x94>
    800012a8:	fec42783          	lw	a5,-20(s0)
    800012ac:	00379793          	slli	a5,a5,0x3
    800012b0:	fd843703          	ld	a4,-40(s0)
    800012b4:	00f707b3          	add	a5,a4,a5
    800012b8:	0007b783          	ld	a5,0(a5)
    800012bc:	00a7d793          	srli	a5,a5,0xa
    800012c0:	00c79793          	slli	a5,a5,0xc
    800012c4:	fe440713          	addi	a4,s0,-28
    800012c8:	00070593          	mv	a1,a4
    800012cc:	00078513          	mv	a0,a5
    800012d0:	7bc000ef          	jal	ra,80001a8c <kfree>
    800012d4:	fe442783          	lw	a5,-28(s0)
    800012d8:	00078a63          	beqz	a5,800012ec <free_pte_rec+0x94>
    800012dc:	00003517          	auipc	a0,0x3
    800012e0:	d8450513          	addi	a0,a0,-636 # 80004060 <textEnd+0x60>
    800012e4:	669010ef          	jal	ra,8000314c <panic>
    800012e8:	1000006f          	j	800013e8 <free_pte_rec+0x190>
    800012ec:	fec42783          	lw	a5,-20(s0)
    800012f0:	0017879b          	addiw	a5,a5,1
    800012f4:	fef42623          	sw	a5,-20(s0)
    800012f8:	fec42783          	lw	a5,-20(s0)
    800012fc:	0007871b          	sext.w	a4,a5
    80001300:	1ff00793          	li	a5,511
    80001304:	f8e7d4e3          	bge	a5,a4,8000128c <free_pte_rec+0x34>
    80001308:	0e00006f          	j	800013e8 <free_pte_rec+0x190>
    8000130c:	fe042423          	sw	zero,-24(s0)
    80001310:	0c80006f          	j	800013d8 <free_pte_rec+0x180>
    80001314:	fe842783          	lw	a5,-24(s0)
    80001318:	00379793          	slli	a5,a5,0x3
    8000131c:	fd843703          	ld	a4,-40(s0)
    80001320:	00f707b3          	add	a5,a4,a5
    80001324:	0007b783          	ld	a5,0(a5)
    80001328:	0047f793          	andi	a5,a5,4
    8000132c:	02079e63          	bnez	a5,80001368 <free_pte_rec+0x110>
    80001330:	fe842783          	lw	a5,-24(s0)
    80001334:	00379793          	slli	a5,a5,0x3
    80001338:	fd843703          	ld	a4,-40(s0)
    8000133c:	00f707b3          	add	a5,a4,a5
    80001340:	0007b783          	ld	a5,0(a5)
    80001344:	0027f793          	andi	a5,a5,2
    80001348:	02079063          	bnez	a5,80001368 <free_pte_rec+0x110>
    8000134c:	fe842783          	lw	a5,-24(s0)
    80001350:	00379793          	slli	a5,a5,0x3
    80001354:	fd843703          	ld	a4,-40(s0)
    80001358:	00f707b3          	add	a5,a4,a5
    8000135c:	0007b783          	ld	a5,0(a5)
    80001360:	0087f793          	andi	a5,a5,8
    80001364:	00078a63          	beqz	a5,80001378 <free_pte_rec+0x120>
    80001368:	00003517          	auipc	a0,0x3
    8000136c:	d0850513          	addi	a0,a0,-760 # 80004070 <textEnd+0x70>
    80001370:	5dd010ef          	jal	ra,8000314c <panic>
    80001374:	0580006f          	j	800013cc <free_pte_rec+0x174>
    80001378:	fe842783          	lw	a5,-24(s0)
    8000137c:	00379793          	slli	a5,a5,0x3
    80001380:	fd843703          	ld	a4,-40(s0)
    80001384:	00f707b3          	add	a5,a4,a5
    80001388:	0007b783          	ld	a5,0(a5)
    8000138c:	0017f793          	andi	a5,a5,1
    80001390:	02078e63          	beqz	a5,800013cc <free_pte_rec+0x174>
    80001394:	fe842783          	lw	a5,-24(s0)
    80001398:	00379793          	slli	a5,a5,0x3
    8000139c:	fd843703          	ld	a4,-40(s0)
    800013a0:	00f707b3          	add	a5,a4,a5
    800013a4:	0007b783          	ld	a5,0(a5)
    800013a8:	00a7d793          	srli	a5,a5,0xa
    800013ac:	00c79793          	slli	a5,a5,0xc
    800013b0:	00078713          	mv	a4,a5
    800013b4:	fd442783          	lw	a5,-44(s0)
    800013b8:	0017879b          	addiw	a5,a5,1
    800013bc:	0007879b          	sext.w	a5,a5
    800013c0:	00078593          	mv	a1,a5
    800013c4:	00070513          	mv	a0,a4
    800013c8:	e91ff0ef          	jal	ra,80001258 <free_pte_rec>
    800013cc:	fe842783          	lw	a5,-24(s0)
    800013d0:	0017879b          	addiw	a5,a5,1
    800013d4:	fef42423          	sw	a5,-24(s0)
    800013d8:	fe842783          	lw	a5,-24(s0)
    800013dc:	0007871b          	sext.w	a4,a5
    800013e0:	1ff00793          	li	a5,511
    800013e4:	f2e7d8e3          	bge	a5,a4,80001314 <free_pte_rec+0xbc>
    800013e8:	02813083          	ld	ra,40(sp)
    800013ec:	02013403          	ld	s0,32(sp)
    800013f0:	03010113          	addi	sp,sp,48
    800013f4:	00008067          	ret

00000000800013f8 <free_pte>:
    800013f8:	fe010113          	addi	sp,sp,-32
    800013fc:	00113c23          	sd	ra,24(sp)
    80001400:	00813823          	sd	s0,16(sp)
    80001404:	02010413          	addi	s0,sp,32
    80001408:	fea43423          	sd	a0,-24(s0)
    8000140c:	00000593          	li	a1,0
    80001410:	fe843503          	ld	a0,-24(s0)
    80001414:	e45ff0ef          	jal	ra,80001258 <free_pte_rec>
    80001418:	00000013          	nop
    8000141c:	01813083          	ld	ra,24(sp)
    80001420:	01013403          	ld	s0,16(sp)
    80001424:	02010113          	addi	sp,sp,32
    80001428:	00008067          	ret

000000008000142c <free_pgt_rec>:
    8000142c:	fd010113          	addi	sp,sp,-48
    80001430:	02113423          	sd	ra,40(sp)
    80001434:	02813023          	sd	s0,32(sp)
    80001438:	03010413          	addi	s0,sp,48
    8000143c:	fca43c23          	sd	a0,-40(s0)
    80001440:	00058793          	mv	a5,a1
    80001444:	fcf42a23          	sw	a5,-44(s0)
    80001448:	fd442783          	lw	a5,-44(s0)
    8000144c:	0007871b          	sext.w	a4,a5
    80001450:	00100793          	li	a5,1
    80001454:	08f71663          	bne	a4,a5,800014e0 <free_pgt_rec+0xb4>
    80001458:	fe042623          	sw	zero,-20(s0)
    8000145c:	0700006f          	j	800014cc <free_pgt_rec+0xa0>
    80001460:	fec42783          	lw	a5,-20(s0)
    80001464:	00379793          	slli	a5,a5,0x3
    80001468:	fd843703          	ld	a4,-40(s0)
    8000146c:	00f707b3          	add	a5,a4,a5
    80001470:	0007b783          	ld	a5,0(a5)
    80001474:	0017f793          	andi	a5,a5,1
    80001478:	04078463          	beqz	a5,800014c0 <free_pgt_rec+0x94>
    8000147c:	fec42783          	lw	a5,-20(s0)
    80001480:	00379793          	slli	a5,a5,0x3
    80001484:	fd843703          	ld	a4,-40(s0)
    80001488:	00f707b3          	add	a5,a4,a5
    8000148c:	0007b783          	ld	a5,0(a5)
    80001490:	00a7d793          	srli	a5,a5,0xa
    80001494:	00c79793          	slli	a5,a5,0xc
    80001498:	fe440713          	addi	a4,s0,-28
    8000149c:	00070593          	mv	a1,a4
    800014a0:	00078513          	mv	a0,a5
    800014a4:	5e8000ef          	jal	ra,80001a8c <kfree>
    800014a8:	fe442783          	lw	a5,-28(s0)
    800014ac:	00078a63          	beqz	a5,800014c0 <free_pgt_rec+0x94>
    800014b0:	00003517          	auipc	a0,0x3
    800014b4:	bb050513          	addi	a0,a0,-1104 # 80004060 <textEnd+0x60>
    800014b8:	495010ef          	jal	ra,8000314c <panic>
    800014bc:	0e40006f          	j	800015a0 <free_pgt_rec+0x174>
    800014c0:	fec42783          	lw	a5,-20(s0)
    800014c4:	0017879b          	addiw	a5,a5,1
    800014c8:	fef42623          	sw	a5,-20(s0)
    800014cc:	fec42783          	lw	a5,-20(s0)
    800014d0:	0007871b          	sext.w	a4,a5
    800014d4:	1ff00793          	li	a5,511
    800014d8:	f8e7d4e3          	bge	a5,a4,80001460 <free_pgt_rec+0x34>
    800014dc:	0c40006f          	j	800015a0 <free_pgt_rec+0x174>
    800014e0:	fe042423          	sw	zero,-24(s0)
    800014e4:	0a80006f          	j	8000158c <free_pgt_rec+0x160>
    800014e8:	fe842783          	lw	a5,-24(s0)
    800014ec:	00379793          	slli	a5,a5,0x3
    800014f0:	fd843703          	ld	a4,-40(s0)
    800014f4:	00f707b3          	add	a5,a4,a5
    800014f8:	0007b783          	ld	a5,0(a5)
    800014fc:	0017f793          	andi	a5,a5,1
    80001500:	08078063          	beqz	a5,80001580 <free_pgt_rec+0x154>
    80001504:	fe842783          	lw	a5,-24(s0)
    80001508:	00379793          	slli	a5,a5,0x3
    8000150c:	fd843703          	ld	a4,-40(s0)
    80001510:	00f707b3          	add	a5,a4,a5
    80001514:	0007b783          	ld	a5,0(a5)
    80001518:	00a7d793          	srli	a5,a5,0xa
    8000151c:	00c79793          	slli	a5,a5,0xc
    80001520:	00078713          	mv	a4,a5
    80001524:	fd442783          	lw	a5,-44(s0)
    80001528:	0017879b          	addiw	a5,a5,1
    8000152c:	0007879b          	sext.w	a5,a5
    80001530:	00078593          	mv	a1,a5
    80001534:	00070513          	mv	a0,a4
    80001538:	ef5ff0ef          	jal	ra,8000142c <free_pgt_rec>
    8000153c:	fe842783          	lw	a5,-24(s0)
    80001540:	00379793          	slli	a5,a5,0x3
    80001544:	fd843703          	ld	a4,-40(s0)
    80001548:	00f707b3          	add	a5,a4,a5
    8000154c:	0007b783          	ld	a5,0(a5)
    80001550:	00a7d793          	srli	a5,a5,0xa
    80001554:	00c79793          	slli	a5,a5,0xc
    80001558:	fe040713          	addi	a4,s0,-32
    8000155c:	00070593          	mv	a1,a4
    80001560:	00078513          	mv	a0,a5
    80001564:	528000ef          	jal	ra,80001a8c <kfree>
    80001568:	fe042783          	lw	a5,-32(s0)
    8000156c:	00078a63          	beqz	a5,80001580 <free_pgt_rec+0x154>
    80001570:	00003517          	auipc	a0,0x3
    80001574:	af050513          	addi	a0,a0,-1296 # 80004060 <textEnd+0x60>
    80001578:	3d5010ef          	jal	ra,8000314c <panic>
    8000157c:	0240006f          	j	800015a0 <free_pgt_rec+0x174>
    80001580:	fe842783          	lw	a5,-24(s0)
    80001584:	0017879b          	addiw	a5,a5,1
    80001588:	fef42423          	sw	a5,-24(s0)
    8000158c:	fe842783          	lw	a5,-24(s0)
    80001590:	0007871b          	sext.w	a4,a5
    80001594:	1ff00793          	li	a5,511
    80001598:	f4e7d8e3          	bge	a5,a4,800014e8 <free_pgt_rec+0xbc>
    8000159c:	00000013          	nop
    800015a0:	02813083          	ld	ra,40(sp)
    800015a4:	02013403          	ld	s0,32(sp)
    800015a8:	03010113          	addi	sp,sp,48
    800015ac:	00008067          	ret

00000000800015b0 <free_pagetable>:
    800015b0:	fe010113          	addi	sp,sp,-32
    800015b4:	00113c23          	sd	ra,24(sp)
    800015b8:	00813823          	sd	s0,16(sp)
    800015bc:	02010413          	addi	s0,sp,32
    800015c0:	fea43423          	sd	a0,-24(s0)
    800015c4:	fe843503          	ld	a0,-24(s0)
    800015c8:	e31ff0ef          	jal	ra,800013f8 <free_pte>
    800015cc:	00000593          	li	a1,0
    800015d0:	fe843503          	ld	a0,-24(s0)
    800015d4:	e59ff0ef          	jal	ra,8000142c <free_pgt_rec>
    800015d8:	00000013          	nop
    800015dc:	01813083          	ld	ra,24(sp)
    800015e0:	01013403          	ld	s0,16(sp)
    800015e4:	02010113          	addi	sp,sp,32
    800015e8:	00008067          	ret

00000000800015ec <uvm_alloc>:
    800015ec:	fd010113          	addi	sp,sp,-48
    800015f0:	02113423          	sd	ra,40(sp)
    800015f4:	02813023          	sd	s0,32(sp)
    800015f8:	03010413          	addi	s0,sp,48
    800015fc:	fca43c23          	sd	a0,-40(s0)
    80001600:	fd843503          	ld	a0,-40(s0)
    80001604:	304000ef          	jal	ra,80001908 <kalloc>
    80001608:	fea43423          	sd	a0,-24(s0)
    8000160c:	fd843783          	ld	a5,-40(s0)
    80001610:	0007a783          	lw	a5,0(a5)
    80001614:	00078663          	beqz	a5,80001620 <uvm_alloc+0x34>
    80001618:	00000793          	li	a5,0
    8000161c:	0080006f          	j	80001624 <uvm_alloc+0x38>
    80001620:	fe843783          	ld	a5,-24(s0)
    80001624:	00078513          	mv	a0,a5
    80001628:	02813083          	ld	ra,40(sp)
    8000162c:	02013403          	ld	s0,32(sp)
    80001630:	03010113          	addi	sp,sp,48
    80001634:	00008067          	ret

0000000080001638 <walkadrs>:
    80001638:	fc010113          	addi	sp,sp,-64
    8000163c:	02113c23          	sd	ra,56(sp)
    80001640:	02813823          	sd	s0,48(sp)
    80001644:	04010413          	addi	s0,sp,64
    80001648:	fca43c23          	sd	a0,-40(s0)
    8000164c:	fcb43823          	sd	a1,-48(s0)
    80001650:	fcc43423          	sd	a2,-56(s0)
    80001654:	fd043703          	ld	a4,-48(s0)
    80001658:	fffff7b7          	lui	a5,0xfffff
    8000165c:	00f777b3          	and	a5,a4,a5
    80001660:	fef43423          	sd	a5,-24(s0)
    80001664:	fc843683          	ld	a3,-56(s0)
    80001668:	00000613          	li	a2,0
    8000166c:	fe843583          	ld	a1,-24(s0)
    80001670:	fd843503          	ld	a0,-40(s0)
    80001674:	a69ff0ef          	jal	ra,800010dc <walk>
    80001678:	fea43023          	sd	a0,-32(s0)
    8000167c:	fc843783          	ld	a5,-56(s0)
    80001680:	0007a783          	lw	a5,0(a5) # fffffffffffff000 <end+0xffffffff7fff1810>
    80001684:	04079263          	bnez	a5,800016c8 <walkadrs+0x90>
    80001688:	fe043783          	ld	a5,-32(s0)
    8000168c:	0007b783          	ld	a5,0(a5)
    80001690:	0017f793          	andi	a5,a5,1
    80001694:	02078a63          	beqz	a5,800016c8 <walkadrs+0x90>
    80001698:	fc843783          	ld	a5,-56(s0)
    8000169c:	0007a023          	sw	zero,0(a5)
    800016a0:	fe043783          	ld	a5,-32(s0)
    800016a4:	0007b783          	ld	a5,0(a5)
    800016a8:	00a7d793          	srli	a5,a5,0xa
    800016ac:	00c79713          	slli	a4,a5,0xc
    800016b0:	fd043683          	ld	a3,-48(s0)
    800016b4:	000017b7          	lui	a5,0x1
    800016b8:	fff78793          	addi	a5,a5,-1 # fff <_start-0x7ffff001>
    800016bc:	00f6f7b3          	and	a5,a3,a5
    800016c0:	00f767b3          	or	a5,a4,a5
    800016c4:	0140006f          	j	800016d8 <walkadrs+0xa0>
    800016c8:	fc843783          	ld	a5,-56(s0)
    800016cc:	00500713          	li	a4,5
    800016d0:	00e7a023          	sw	a4,0(a5)
    800016d4:	00000793          	li	a5,0
    800016d8:	00078513          	mv	a0,a5
    800016dc:	03813083          	ld	ra,56(sp)
    800016e0:	03013403          	ld	s0,48(sp)
    800016e4:	04010113          	addi	sp,sp,64
    800016e8:	00008067          	ret

00000000800016ec <unmap>:
    800016ec:	fb010113          	addi	sp,sp,-80
    800016f0:	04113423          	sd	ra,72(sp)
    800016f4:	04813023          	sd	s0,64(sp)
    800016f8:	05010413          	addi	s0,sp,80
    800016fc:	fca43423          	sd	a0,-56(s0)
    80001700:	fcb43023          	sd	a1,-64(s0)
    80001704:	00060793          	mv	a5,a2
    80001708:	fad43823          	sd	a3,-80(s0)
    8000170c:	faf42e23          	sw	a5,-68(s0)
    80001710:	fc043703          	ld	a4,-64(s0)
    80001714:	fffff7b7          	lui	a5,0xfffff
    80001718:	00f777b3          	and	a5,a4,a5
    8000171c:	fef43423          	sd	a5,-24(s0)
    80001720:	fe042223          	sw	zero,-28(s0)
    80001724:	0ec0006f          	j	80001810 <unmap+0x124>
    80001728:	fb043683          	ld	a3,-80(s0)
    8000172c:	00000613          	li	a2,0
    80001730:	fe843583          	ld	a1,-24(s0)
    80001734:	fc843503          	ld	a0,-56(s0)
    80001738:	9a5ff0ef          	jal	ra,800010dc <walk>
    8000173c:	fca43c23          	sd	a0,-40(s0)
    80001740:	fb043783          	ld	a5,-80(s0)
    80001744:	0007a783          	lw	a5,0(a5) # fffffffffffff000 <end+0xffffffff7fff1810>
    80001748:	08079063          	bnez	a5,800017c8 <unmap+0xdc>
    8000174c:	fd843783          	ld	a5,-40(s0)
    80001750:	0007b783          	ld	a5,0(a5)
    80001754:	0017f793          	andi	a5,a5,1
    80001758:	04078263          	beqz	a5,8000179c <unmap+0xb0>
    8000175c:	fd843783          	ld	a5,-40(s0)
    80001760:	0007b783          	ld	a5,0(a5)
    80001764:	00a7d793          	srli	a5,a5,0xa
    80001768:	00c79793          	slli	a5,a5,0xc
    8000176c:	fb043583          	ld	a1,-80(s0)
    80001770:	00078513          	mv	a0,a5
    80001774:	318000ef          	jal	ra,80001a8c <kfree>
    80001778:	fb043783          	ld	a5,-80(s0)
    8000177c:	0007a783          	lw	a5,0(a5)
    80001780:	00078863          	beqz	a5,80001790 <unmap+0xa4>
    80001784:	00003517          	auipc	a0,0x3
    80001788:	8dc50513          	addi	a0,a0,-1828 # 80004060 <textEnd+0x60>
    8000178c:	1c1010ef          	jal	ra,8000314c <panic>
    80001790:	fd843783          	ld	a5,-40(s0)
    80001794:	0007b023          	sd	zero,0(a5)
    80001798:	05c0006f          	j	800017f4 <unmap+0x108>
    8000179c:	fe442783          	lw	a5,-28(s0)
    800017a0:	0007879b          	sext.w	a5,a5
    800017a4:	00079a63          	bnez	a5,800017b8 <unmap+0xcc>
    800017a8:	fb043783          	ld	a5,-80(s0)
    800017ac:	00600713          	li	a4,6
    800017b0:	00e7a023          	sw	a4,0(a5)
    800017b4:	07c0006f          	j	80001830 <unmap+0x144>
    800017b8:	fb043783          	ld	a5,-80(s0)
    800017bc:	00700713          	li	a4,7
    800017c0:	00e7a023          	sw	a4,0(a5)
    800017c4:	06c0006f          	j	80001830 <unmap+0x144>
    800017c8:	fe442783          	lw	a5,-28(s0)
    800017cc:	0007879b          	sext.w	a5,a5
    800017d0:	00079a63          	bnez	a5,800017e4 <unmap+0xf8>
    800017d4:	fb043783          	ld	a5,-80(s0)
    800017d8:	00600713          	li	a4,6
    800017dc:	00e7a023          	sw	a4,0(a5)
    800017e0:	0500006f          	j	80001830 <unmap+0x144>
    800017e4:	fb043783          	ld	a5,-80(s0)
    800017e8:	00700713          	li	a4,7
    800017ec:	00e7a023          	sw	a4,0(a5)
    800017f0:	0400006f          	j	80001830 <unmap+0x144>
    800017f4:	fe442783          	lw	a5,-28(s0)
    800017f8:	0017879b          	addiw	a5,a5,1
    800017fc:	fef42223          	sw	a5,-28(s0)
    80001800:	fe843703          	ld	a4,-24(s0)
    80001804:	000017b7          	lui	a5,0x1
    80001808:	00f707b3          	add	a5,a4,a5
    8000180c:	fef43423          	sd	a5,-24(s0)
    80001810:	fe442703          	lw	a4,-28(s0)
    80001814:	fbc42783          	lw	a5,-68(s0)
    80001818:	0007071b          	sext.w	a4,a4
    8000181c:	0007879b          	sext.w	a5,a5
    80001820:	f0f764e3          	bltu	a4,a5,80001728 <unmap+0x3c>
    80001824:	fb043783          	ld	a5,-80(s0)
    80001828:	0007a023          	sw	zero,0(a5) # 1000 <_start-0x7ffff000>
    8000182c:	00000013          	nop
    80001830:	04813083          	ld	ra,72(sp)
    80001834:	04013403          	ld	s0,64(sp)
    80001838:	05010113          	addi	sp,sp,80
    8000183c:	00008067          	ret

0000000080001840 <kinit>:
    80001840:	fe010113          	addi	sp,sp,-32
    80001844:	00113c23          	sd	ra,24(sp)
    80001848:	00813823          	sd	s0,16(sp)
    8000184c:	02010413          	addi	s0,sp,32
    80001850:	fe042623          	sw	zero,-20(s0)
    80001854:	0280006f          	j	8000187c <kinit+0x3c>
    80001858:	00004717          	auipc	a4,0x4
    8000185c:	b1870713          	addi	a4,a4,-1256 # 80005370 <bitmap>
    80001860:	fec42783          	lw	a5,-20(s0)
    80001864:	00f707b3          	add	a5,a4,a5
    80001868:	00100713          	li	a4,1
    8000186c:	00e78023          	sb	a4,0(a5)
    80001870:	fec42783          	lw	a5,-20(s0)
    80001874:	0017879b          	addiw	a5,a5,1
    80001878:	fef42623          	sw	a5,-20(s0)
    8000187c:	fec42783          	lw	a5,-20(s0)
    80001880:	0007871b          	sext.w	a4,a5
    80001884:	000087b7          	lui	a5,0x8
    80001888:	fcf748e3          	blt	a4,a5,80001858 <kinit+0x18>
    8000188c:	00004797          	auipc	a5,0x4
    80001890:	acc78793          	addi	a5,a5,-1332 # 80005358 <kmem>
    80001894:	0007b823          	sd	zero,16(a5)
    80001898:	00004797          	auipc	a5,0x4
    8000189c:	ac078793          	addi	a5,a5,-1344 # 80005358 <kmem>
    800018a0:	0007a023          	sw	zero,0(a5)
    800018a4:	00004797          	auipc	a5,0x4
    800018a8:	ab478793          	addi	a5,a5,-1356 # 80005358 <kmem>
    800018ac:	0007a423          	sw	zero,8(a5)
    800018b0:	00004797          	auipc	a5,0x4
    800018b4:	aa878793          	addi	a5,a5,-1368 # 80005358 <kmem>
    800018b8:	00001737          	lui	a4,0x1
    800018bc:	00e7a223          	sw	a4,4(a5)
    800018c0:	0000c717          	auipc	a4,0xc
    800018c4:	f3070713          	addi	a4,a4,-208 # 8000d7f0 <end>
    800018c8:	01100793          	li	a5,17
    800018cc:	01b79793          	slli	a5,a5,0x1b
    800018d0:	fff78593          	addi	a1,a5,-1
    800018d4:	00070513          	mv	a0,a4
    800018d8:	11c000ef          	jal	ra,800019f4 <kfree_arrange>
    800018dc:	00004797          	auipc	a5,0x4
    800018e0:	a7c78793          	addi	a5,a5,-1412 # 80005358 <kmem>
    800018e4:	0087a703          	lw	a4,8(a5)
    800018e8:	00004797          	auipc	a5,0x4
    800018ec:	a7078793          	addi	a5,a5,-1424 # 80005358 <kmem>
    800018f0:	00e7a023          	sw	a4,0(a5)
    800018f4:	00000013          	nop
    800018f8:	01813083          	ld	ra,24(sp)
    800018fc:	01013403          	ld	s0,16(sp)
    80001900:	02010113          	addi	sp,sp,32
    80001904:	00008067          	ret

0000000080001908 <kalloc>:
    80001908:	fd010113          	addi	sp,sp,-48
    8000190c:	02113423          	sd	ra,40(sp)
    80001910:	02813023          	sd	s0,32(sp)
    80001914:	03010413          	addi	s0,sp,48
    80001918:	fca43c23          	sd	a0,-40(s0)
    8000191c:	fe043423          	sd	zero,-24(s0)
    80001920:	1fd010ef          	jal	ra,8000331c <push_on>
    80001924:	00004797          	auipc	a5,0x4
    80001928:	a3478793          	addi	a5,a5,-1484 # 80005358 <kmem>
    8000192c:	0107b783          	ld	a5,16(a5)
    80001930:	fef43423          	sd	a5,-24(s0)
    80001934:	fe843783          	ld	a5,-24(s0)
    80001938:	06078863          	beqz	a5,800019a8 <kalloc+0xa0>
    8000193c:	fe843783          	ld	a5,-24(s0)
    80001940:	0007b703          	ld	a4,0(a5)
    80001944:	00004797          	auipc	a5,0x4
    80001948:	a1478793          	addi	a5,a5,-1516 # 80005358 <kmem>
    8000194c:	00e7b823          	sd	a4,16(a5)
    80001950:	00004797          	auipc	a5,0x4
    80001954:	a0878793          	addi	a5,a5,-1528 # 80005358 <kmem>
    80001958:	0087a783          	lw	a5,8(a5)
    8000195c:	fff7879b          	addiw	a5,a5,-1
    80001960:	0007871b          	sext.w	a4,a5
    80001964:	00004797          	auipc	a5,0x4
    80001968:	9f478793          	addi	a5,a5,-1548 # 80005358 <kmem>
    8000196c:	00e7a423          	sw	a4,8(a5)
    80001970:	fe843703          	ld	a4,-24(s0)
    80001974:	800007b7          	lui	a5,0x80000
    80001978:	00f707b3          	add	a5,a4,a5
    8000197c:	00c7d793          	srli	a5,a5,0xc
    80001980:	00004717          	auipc	a4,0x4
    80001984:	9f070713          	addi	a4,a4,-1552 # 80005370 <bitmap>
    80001988:	00f70733          	add	a4,a4,a5
    8000198c:	00074703          	lbu	a4,0(a4)
    80001990:	0017071b          	addiw	a4,a4,1
    80001994:	0ff77713          	andi	a4,a4,255
    80001998:	00004697          	auipc	a3,0x4
    8000199c:	9d868693          	addi	a3,a3,-1576 # 80005370 <bitmap>
    800019a0:	00f687b3          	add	a5,a3,a5
    800019a4:	00e78023          	sb	a4,0(a5) # ffffffff80000000 <end+0xfffffffeffff2810>
    800019a8:	1e9010ef          	jal	ra,80003390 <pop_off>
    800019ac:	fe843783          	ld	a5,-24(s0)
    800019b0:	02078063          	beqz	a5,800019d0 <kalloc+0xc8>
    800019b4:	fd843783          	ld	a5,-40(s0)
    800019b8:	0007a023          	sw	zero,0(a5)
    800019bc:	00001637          	lui	a2,0x1
    800019c0:	00000593          	li	a1,0
    800019c4:	fe843503          	ld	a0,-24(s0)
    800019c8:	045000ef          	jal	ra,8000220c <memset>
    800019cc:	0100006f          	j	800019dc <kalloc+0xd4>
    800019d0:	fd843783          	ld	a5,-40(s0)
    800019d4:	00200713          	li	a4,2
    800019d8:	00e7a023          	sw	a4,0(a5)
    800019dc:	fe843783          	ld	a5,-24(s0)
    800019e0:	00078513          	mv	a0,a5
    800019e4:	02813083          	ld	ra,40(sp)
    800019e8:	02013403          	ld	s0,32(sp)
    800019ec:	03010113          	addi	sp,sp,48
    800019f0:	00008067          	ret

00000000800019f4 <kfree_arrange>:
    800019f4:	fc010113          	addi	sp,sp,-64
    800019f8:	02113c23          	sd	ra,56(sp)
    800019fc:	02813823          	sd	s0,48(sp)
    80001a00:	04010413          	addi	s0,sp,64
    80001a04:	fca43423          	sd	a0,-56(s0)
    80001a08:	fcb43023          	sd	a1,-64(s0)
    80001a0c:	fc843703          	ld	a4,-56(s0)
    80001a10:	000017b7          	lui	a5,0x1
    80001a14:	00f70733          	add	a4,a4,a5
    80001a18:	fffff7b7          	lui	a5,0xfffff
    80001a1c:	00f777b3          	and	a5,a4,a5
    80001a20:	fef43423          	sd	a5,-24(s0)
    80001a24:	fc043703          	ld	a4,-64(s0)
    80001a28:	fffff7b7          	lui	a5,0xfffff
    80001a2c:	00f777b3          	and	a5,a4,a5
    80001a30:	fef43023          	sd	a5,-32(s0)
    80001a34:	03c0006f          	j	80001a70 <kfree_arrange+0x7c>
    80001a38:	fdc40793          	addi	a5,s0,-36
    80001a3c:	00078593          	mv	a1,a5
    80001a40:	fe843503          	ld	a0,-24(s0)
    80001a44:	048000ef          	jal	ra,80001a8c <kfree>
    80001a48:	fdc42783          	lw	a5,-36(s0)
    80001a4c:	00078a63          	beqz	a5,80001a60 <kfree_arrange+0x6c>
    80001a50:	00002517          	auipc	a0,0x2
    80001a54:	65050513          	addi	a0,a0,1616 # 800040a0 <textEnd+0xa0>
    80001a58:	6f4010ef          	jal	ra,8000314c <panic>
    80001a5c:	0200006f          	j	80001a7c <kfree_arrange+0x88>
    80001a60:	fe843703          	ld	a4,-24(s0)
    80001a64:	000017b7          	lui	a5,0x1
    80001a68:	00f707b3          	add	a5,a4,a5
    80001a6c:	fef43423          	sd	a5,-24(s0)
    80001a70:	fe843703          	ld	a4,-24(s0)
    80001a74:	fe043783          	ld	a5,-32(s0)
    80001a78:	fce7f0e3          	bgeu	a5,a4,80001a38 <kfree_arrange+0x44>
    80001a7c:	03813083          	ld	ra,56(sp)
    80001a80:	03013403          	ld	s0,48(sp)
    80001a84:	04010113          	addi	sp,sp,64
    80001a88:	00008067          	ret

0000000080001a8c <kfree>:
    80001a8c:	fd010113          	addi	sp,sp,-48
    80001a90:	02113423          	sd	ra,40(sp)
    80001a94:	02813023          	sd	s0,32(sp)
    80001a98:	03010413          	addi	s0,sp,48
    80001a9c:	fca43c23          	sd	a0,-40(s0)
    80001aa0:	fcb43823          	sd	a1,-48(s0)
    80001aa4:	fd843703          	ld	a4,-40(s0)
    80001aa8:	000017b7          	lui	a5,0x1
    80001aac:	fff78793          	addi	a5,a5,-1 # fff <_start-0x7ffff001>
    80001ab0:	00f777b3          	and	a5,a4,a5
    80001ab4:	00078a63          	beqz	a5,80001ac8 <kfree+0x3c>
    80001ab8:	fd043783          	ld	a5,-48(s0)
    80001abc:	00100713          	li	a4,1
    80001ac0:	00e7a023          	sw	a4,0(a5)
    80001ac4:	11c0006f          	j	80001be0 <kfree+0x154>
    80001ac8:	fd843703          	ld	a4,-40(s0)
    80001acc:	800007b7          	lui	a5,0x80000
    80001ad0:	fff7c793          	not	a5,a5
    80001ad4:	00e7fa63          	bgeu	a5,a4,80001ae8 <kfree+0x5c>
    80001ad8:	fd843703          	ld	a4,-40(s0)
    80001adc:	01100793          	li	a5,17
    80001ae0:	01b79793          	slli	a5,a5,0x1b
    80001ae4:	00f76863          	bltu	a4,a5,80001af4 <kfree+0x68>
    80001ae8:	00002517          	auipc	a0,0x2
    80001aec:	5c850513          	addi	a0,a0,1480 # 800040b0 <textEnd+0xb0>
    80001af0:	65c010ef          	jal	ra,8000314c <panic>
    80001af4:	029010ef          	jal	ra,8000331c <push_on>
    80001af8:	fd843703          	ld	a4,-40(s0)
    80001afc:	800007b7          	lui	a5,0x80000
    80001b00:	00f707b3          	add	a5,a4,a5
    80001b04:	00c7d793          	srli	a5,a5,0xc
    80001b08:	00004717          	auipc	a4,0x4
    80001b0c:	86870713          	addi	a4,a4,-1944 # 80005370 <bitmap>
    80001b10:	00f707b3          	add	a5,a4,a5
    80001b14:	0007c783          	lbu	a5,0(a5) # ffffffff80000000 <end+0xfffffffeffff2810>
    80001b18:	00079863          	bnez	a5,80001b28 <kfree+0x9c>
    80001b1c:	00002517          	auipc	a0,0x2
    80001b20:	5b450513          	addi	a0,a0,1460 # 800040d0 <textEnd+0xd0>
    80001b24:	628010ef          	jal	ra,8000314c <panic>
    80001b28:	fd843703          	ld	a4,-40(s0)
    80001b2c:	800007b7          	lui	a5,0x80000
    80001b30:	00f707b3          	add	a5,a4,a5
    80001b34:	00c7d793          	srli	a5,a5,0xc
    80001b38:	00004717          	auipc	a4,0x4
    80001b3c:	83870713          	addi	a4,a4,-1992 # 80005370 <bitmap>
    80001b40:	00f70733          	add	a4,a4,a5
    80001b44:	00074703          	lbu	a4,0(a4)
    80001b48:	fff7071b          	addiw	a4,a4,-1
    80001b4c:	0ff77713          	andi	a4,a4,255
    80001b50:	00004697          	auipc	a3,0x4
    80001b54:	82068693          	addi	a3,a3,-2016 # 80005370 <bitmap>
    80001b58:	00f687b3          	add	a5,a3,a5
    80001b5c:	00e78023          	sb	a4,0(a5) # ffffffff80000000 <end+0xfffffffeffff2810>
    80001b60:	fd843703          	ld	a4,-40(s0)
    80001b64:	800007b7          	lui	a5,0x80000
    80001b68:	00f707b3          	add	a5,a4,a5
    80001b6c:	00c7d793          	srli	a5,a5,0xc
    80001b70:	00004717          	auipc	a4,0x4
    80001b74:	80070713          	addi	a4,a4,-2048 # 80005370 <bitmap>
    80001b78:	00f707b3          	add	a5,a4,a5
    80001b7c:	0007c783          	lbu	a5,0(a5) # ffffffff80000000 <end+0xfffffffeffff2810>
    80001b80:	04079863          	bnez	a5,80001bd0 <kfree+0x144>
    80001b84:	00003797          	auipc	a5,0x3
    80001b88:	7d478793          	addi	a5,a5,2004 # 80005358 <kmem>
    80001b8c:	0107b783          	ld	a5,16(a5)
    80001b90:	fef43423          	sd	a5,-24(s0)
    80001b94:	fd843703          	ld	a4,-40(s0)
    80001b98:	00003797          	auipc	a5,0x3
    80001b9c:	7c078793          	addi	a5,a5,1984 # 80005358 <kmem>
    80001ba0:	00e7b823          	sd	a4,16(a5)
    80001ba4:	fd843783          	ld	a5,-40(s0)
    80001ba8:	fe843703          	ld	a4,-24(s0)
    80001bac:	00e7b023          	sd	a4,0(a5)
    80001bb0:	00003797          	auipc	a5,0x3
    80001bb4:	7a878793          	addi	a5,a5,1960 # 80005358 <kmem>
    80001bb8:	0087a783          	lw	a5,8(a5)
    80001bbc:	0017879b          	addiw	a5,a5,1
    80001bc0:	0007871b          	sext.w	a4,a5
    80001bc4:	00003797          	auipc	a5,0x3
    80001bc8:	79478793          	addi	a5,a5,1940 # 80005358 <kmem>
    80001bcc:	00e7a423          	sw	a4,8(a5)
    80001bd0:	7c0010ef          	jal	ra,80003390 <pop_off>
    80001bd4:	fd043783          	ld	a5,-48(s0)
    80001bd8:	0007a023          	sw	zero,0(a5)
    80001bdc:	00000013          	nop
    80001be0:	02813083          	ld	ra,40(sp)
    80001be4:	02013403          	ld	s0,32(sp)
    80001be8:	03010113          	addi	sp,sp,48
    80001bec:	00008067          	ret

0000000080001bf0 <kbit_index_add>:
    80001bf0:	fe010113          	addi	sp,sp,-32
    80001bf4:	00113c23          	sd	ra,24(sp)
    80001bf8:	00813823          	sd	s0,16(sp)
    80001bfc:	02010413          	addi	s0,sp,32
    80001c00:	fea43423          	sd	a0,-24(s0)
    80001c04:	fe843703          	ld	a4,-24(s0)
    80001c08:	000017b7          	lui	a5,0x1
    80001c0c:	fff78793          	addi	a5,a5,-1 # fff <_start-0x7ffff001>
    80001c10:	00f777b3          	and	a5,a4,a5
    80001c14:	00078863          	beqz	a5,80001c24 <kbit_index_add+0x34>
    80001c18:	00002517          	auipc	a0,0x2
    80001c1c:	4d050513          	addi	a0,a0,1232 # 800040e8 <textEnd+0xe8>
    80001c20:	52c010ef          	jal	ra,8000314c <panic>
    80001c24:	fe843703          	ld	a4,-24(s0)
    80001c28:	800007b7          	lui	a5,0x80000
    80001c2c:	fff7c793          	not	a5,a5
    80001c30:	00e7fa63          	bgeu	a5,a4,80001c44 <kbit_index_add+0x54>
    80001c34:	fe843703          	ld	a4,-24(s0)
    80001c38:	01100793          	li	a5,17
    80001c3c:	01b79793          	slli	a5,a5,0x1b
    80001c40:	00f76863          	bltu	a4,a5,80001c50 <kbit_index_add+0x60>
    80001c44:	00002517          	auipc	a0,0x2
    80001c48:	46c50513          	addi	a0,a0,1132 # 800040b0 <textEnd+0xb0>
    80001c4c:	500010ef          	jal	ra,8000314c <panic>
    80001c50:	6cc010ef          	jal	ra,8000331c <push_on>
    80001c54:	fe843703          	ld	a4,-24(s0)
    80001c58:	800007b7          	lui	a5,0x80000
    80001c5c:	00f707b3          	add	a5,a4,a5
    80001c60:	00c7d793          	srli	a5,a5,0xc
    80001c64:	00003717          	auipc	a4,0x3
    80001c68:	70c70713          	addi	a4,a4,1804 # 80005370 <bitmap>
    80001c6c:	00f70733          	add	a4,a4,a5
    80001c70:	00074703          	lbu	a4,0(a4)
    80001c74:	0017071b          	addiw	a4,a4,1
    80001c78:	0ff77713          	andi	a4,a4,255
    80001c7c:	00003697          	auipc	a3,0x3
    80001c80:	6f468693          	addi	a3,a3,1780 # 80005370 <bitmap>
    80001c84:	00f687b3          	add	a5,a3,a5
    80001c88:	00e78023          	sb	a4,0(a5) # ffffffff80000000 <end+0xfffffffeffff2810>
    80001c8c:	704010ef          	jal	ra,80003390 <pop_off>
    80001c90:	00000013          	nop
    80001c94:	01813083          	ld	ra,24(sp)
    80001c98:	01013403          	ld	s0,16(sp)
    80001c9c:	02010113          	addi	sp,sp,32
    80001ca0:	00008067          	ret

0000000080001ca4 <strlen>:
    80001ca4:	fd010113          	addi	sp,sp,-48
    80001ca8:	02813423          	sd	s0,40(sp)
    80001cac:	03010413          	addi	s0,sp,48
    80001cb0:	fca43c23          	sd	a0,-40(s0)
    80001cb4:	fe042623          	sw	zero,-20(s0)
    80001cb8:	0100006f          	j	80001cc8 <strlen+0x24>
    80001cbc:	fec42783          	lw	a5,-20(s0)
    80001cc0:	0017879b          	addiw	a5,a5,1
    80001cc4:	fef42623          	sw	a5,-20(s0)
    80001cc8:	fec46783          	lwu	a5,-20(s0)
    80001ccc:	fd843703          	ld	a4,-40(s0)
    80001cd0:	00f707b3          	add	a5,a4,a5
    80001cd4:	0007c783          	lbu	a5,0(a5)
    80001cd8:	fe0792e3          	bnez	a5,80001cbc <strlen+0x18>
    80001cdc:	fec42783          	lw	a5,-20(s0)
    80001ce0:	00078513          	mv	a0,a5
    80001ce4:	02813403          	ld	s0,40(sp)
    80001ce8:	03010113          	addi	sp,sp,48
    80001cec:	00008067          	ret

0000000080001cf0 <strcpy>:
    80001cf0:	fd010113          	addi	sp,sp,-48
    80001cf4:	02813423          	sd	s0,40(sp)
    80001cf8:	03010413          	addi	s0,sp,48
    80001cfc:	fca43c23          	sd	a0,-40(s0)
    80001d00:	fcb43823          	sd	a1,-48(s0)
    80001d04:	fe042623          	sw	zero,-20(s0)
    80001d08:	0300006f          	j	80001d38 <strcpy+0x48>
    80001d0c:	fec42783          	lw	a5,-20(s0)
    80001d10:	fd043703          	ld	a4,-48(s0)
    80001d14:	00f70733          	add	a4,a4,a5
    80001d18:	fec42783          	lw	a5,-20(s0)
    80001d1c:	fd843683          	ld	a3,-40(s0)
    80001d20:	00f687b3          	add	a5,a3,a5
    80001d24:	00074703          	lbu	a4,0(a4)
    80001d28:	00e78023          	sb	a4,0(a5)
    80001d2c:	fec42783          	lw	a5,-20(s0)
    80001d30:	0017879b          	addiw	a5,a5,1
    80001d34:	fef42623          	sw	a5,-20(s0)
    80001d38:	fec42783          	lw	a5,-20(s0)
    80001d3c:	fd043703          	ld	a4,-48(s0)
    80001d40:	00f707b3          	add	a5,a4,a5
    80001d44:	0007c783          	lbu	a5,0(a5)
    80001d48:	fc0792e3          	bnez	a5,80001d0c <strcpy+0x1c>
    80001d4c:	fd843783          	ld	a5,-40(s0)
    80001d50:	00078513          	mv	a0,a5
    80001d54:	02813403          	ld	s0,40(sp)
    80001d58:	03010113          	addi	sp,sp,48
    80001d5c:	00008067          	ret

0000000080001d60 <strncpy>:
    80001d60:	fc010113          	addi	sp,sp,-64
    80001d64:	02813c23          	sd	s0,56(sp)
    80001d68:	04010413          	addi	s0,sp,64
    80001d6c:	fca43c23          	sd	a0,-40(s0)
    80001d70:	fcb43823          	sd	a1,-48(s0)
    80001d74:	00060793          	mv	a5,a2
    80001d78:	fcf42623          	sw	a5,-52(s0)
    80001d7c:	fe042623          	sw	zero,-20(s0)
    80001d80:	0300006f          	j	80001db0 <strncpy+0x50>
    80001d84:	fec42783          	lw	a5,-20(s0)
    80001d88:	fd043703          	ld	a4,-48(s0)
    80001d8c:	00f70733          	add	a4,a4,a5
    80001d90:	fec42783          	lw	a5,-20(s0)
    80001d94:	fd843683          	ld	a3,-40(s0)
    80001d98:	00f687b3          	add	a5,a3,a5
    80001d9c:	00074703          	lbu	a4,0(a4)
    80001da0:	00e78023          	sb	a4,0(a5)
    80001da4:	fec42783          	lw	a5,-20(s0)
    80001da8:	0017879b          	addiw	a5,a5,1
    80001dac:	fef42623          	sw	a5,-20(s0)
    80001db0:	fec42783          	lw	a5,-20(s0)
    80001db4:	fd043703          	ld	a4,-48(s0)
    80001db8:	00f707b3          	add	a5,a4,a5
    80001dbc:	0007c783          	lbu	a5,0(a5)
    80001dc0:	00078a63          	beqz	a5,80001dd4 <strncpy+0x74>
    80001dc4:	fec42703          	lw	a4,-20(s0)
    80001dc8:	fcc42783          	lw	a5,-52(s0)
    80001dcc:	0007879b          	sext.w	a5,a5
    80001dd0:	faf76ae3          	bltu	a4,a5,80001d84 <strncpy+0x24>
    80001dd4:	fd843783          	ld	a5,-40(s0)
    80001dd8:	00078513          	mv	a0,a5
    80001ddc:	03813403          	ld	s0,56(sp)
    80001de0:	04010113          	addi	sp,sp,64
    80001de4:	00008067          	ret

0000000080001de8 <strcmp>:
    80001de8:	fd010113          	addi	sp,sp,-48
    80001dec:	02813423          	sd	s0,40(sp)
    80001df0:	03010413          	addi	s0,sp,48
    80001df4:	fca43c23          	sd	a0,-40(s0)
    80001df8:	fcb43823          	sd	a1,-48(s0)
    80001dfc:	fe042623          	sw	zero,-20(s0)
    80001e00:	06c0006f          	j	80001e6c <strcmp+0x84>
    80001e04:	fec42783          	lw	a5,-20(s0)
    80001e08:	fd843703          	ld	a4,-40(s0)
    80001e0c:	00f707b3          	add	a5,a4,a5
    80001e10:	0007c683          	lbu	a3,0(a5)
    80001e14:	fec42783          	lw	a5,-20(s0)
    80001e18:	fd043703          	ld	a4,-48(s0)
    80001e1c:	00f707b3          	add	a5,a4,a5
    80001e20:	0007c783          	lbu	a5,0(a5)
    80001e24:	00068713          	mv	a4,a3
    80001e28:	02f70c63          	beq	a4,a5,80001e60 <strcmp+0x78>
    80001e2c:	fec42783          	lw	a5,-20(s0)
    80001e30:	fd843703          	ld	a4,-40(s0)
    80001e34:	00f707b3          	add	a5,a4,a5
    80001e38:	0007c783          	lbu	a5,0(a5)
    80001e3c:	0007871b          	sext.w	a4,a5
    80001e40:	fec42783          	lw	a5,-20(s0)
    80001e44:	fd043683          	ld	a3,-48(s0)
    80001e48:	00f687b3          	add	a5,a3,a5
    80001e4c:	0007c783          	lbu	a5,0(a5)
    80001e50:	0007879b          	sext.w	a5,a5
    80001e54:	40f707bb          	subw	a5,a4,a5
    80001e58:	0007879b          	sext.w	a5,a5
    80001e5c:	03c0006f          	j	80001e98 <strcmp+0xb0>
    80001e60:	fec42783          	lw	a5,-20(s0)
    80001e64:	0017879b          	addiw	a5,a5,1
    80001e68:	fef42623          	sw	a5,-20(s0)
    80001e6c:	fec42783          	lw	a5,-20(s0)
    80001e70:	fd843703          	ld	a4,-40(s0)
    80001e74:	00f707b3          	add	a5,a4,a5
    80001e78:	0007c783          	lbu	a5,0(a5)
    80001e7c:	f80794e3          	bnez	a5,80001e04 <strcmp+0x1c>
    80001e80:	fec42783          	lw	a5,-20(s0)
    80001e84:	fd043703          	ld	a4,-48(s0)
    80001e88:	00f707b3          	add	a5,a4,a5
    80001e8c:	0007c783          	lbu	a5,0(a5)
    80001e90:	f6079ae3          	bnez	a5,80001e04 <strcmp+0x1c>
    80001e94:	00000793          	li	a5,0
    80001e98:	00078513          	mv	a0,a5
    80001e9c:	02813403          	ld	s0,40(sp)
    80001ea0:	03010113          	addi	sp,sp,48
    80001ea4:	00008067          	ret

0000000080001ea8 <strcat>:
    80001ea8:	fd010113          	addi	sp,sp,-48
    80001eac:	02813423          	sd	s0,40(sp)
    80001eb0:	03010413          	addi	s0,sp,48
    80001eb4:	fca43c23          	sd	a0,-40(s0)
    80001eb8:	fcb43823          	sd	a1,-48(s0)
    80001ebc:	fd843783          	ld	a5,-40(s0)
    80001ec0:	fef43423          	sd	a5,-24(s0)
    80001ec4:	0100006f          	j	80001ed4 <strcat+0x2c>
    80001ec8:	fe843783          	ld	a5,-24(s0)
    80001ecc:	00178793          	addi	a5,a5,1
    80001ed0:	fef43423          	sd	a5,-24(s0)
    80001ed4:	fe843783          	ld	a5,-24(s0)
    80001ed8:	0007c783          	lbu	a5,0(a5)
    80001edc:	fe0796e3          	bnez	a5,80001ec8 <strcat+0x20>
    80001ee0:	fe042223          	sw	zero,-28(s0)
    80001ee4:	0340006f          	j	80001f18 <strcat+0x70>
    80001ee8:	fe442783          	lw	a5,-28(s0)
    80001eec:	fd043703          	ld	a4,-48(s0)
    80001ef0:	00f707b3          	add	a5,a4,a5
    80001ef4:	0007c703          	lbu	a4,0(a5)
    80001ef8:	fe843783          	ld	a5,-24(s0)
    80001efc:	00e78023          	sb	a4,0(a5)
    80001f00:	fe442783          	lw	a5,-28(s0)
    80001f04:	0017879b          	addiw	a5,a5,1
    80001f08:	fef42223          	sw	a5,-28(s0)
    80001f0c:	fe843783          	ld	a5,-24(s0)
    80001f10:	00178793          	addi	a5,a5,1
    80001f14:	fef43423          	sd	a5,-24(s0)
    80001f18:	fe442783          	lw	a5,-28(s0)
    80001f1c:	fd043703          	ld	a4,-48(s0)
    80001f20:	00f707b3          	add	a5,a4,a5
    80001f24:	0007c783          	lbu	a5,0(a5)
    80001f28:	fc0790e3          	bnez	a5,80001ee8 <strcat+0x40>
    80001f2c:	fe843783          	ld	a5,-24(s0)
    80001f30:	00078023          	sb	zero,0(a5)
    80001f34:	fd843783          	ld	a5,-40(s0)
    80001f38:	00078513          	mv	a0,a5
    80001f3c:	02813403          	ld	s0,40(sp)
    80001f40:	03010113          	addi	sp,sp,48
    80001f44:	00008067          	ret

0000000080001f48 <strchr>:
    80001f48:	fd010113          	addi	sp,sp,-48
    80001f4c:	02813423          	sd	s0,40(sp)
    80001f50:	03010413          	addi	s0,sp,48
    80001f54:	fca43c23          	sd	a0,-40(s0)
    80001f58:	00058793          	mv	a5,a1
    80001f5c:	fcf42a23          	sw	a5,-44(s0)
    80001f60:	fd843783          	ld	a5,-40(s0)
    80001f64:	fef43423          	sd	a5,-24(s0)
    80001f68:	fe843783          	ld	a5,-24(s0)
    80001f6c:	0007c783          	lbu	a5,0(a5)
    80001f70:	0007871b          	sext.w	a4,a5
    80001f74:	fd442783          	lw	a5,-44(s0)
    80001f78:	0007879b          	sext.w	a5,a5
    80001f7c:	00e79663          	bne	a5,a4,80001f88 <strchr+0x40>
    80001f80:	fe843783          	ld	a5,-24(s0)
    80001f84:	01c0006f          	j	80001fa0 <strchr+0x58>
    80001f88:	fe843783          	ld	a5,-24(s0)
    80001f8c:	00178713          	addi	a4,a5,1
    80001f90:	fee43423          	sd	a4,-24(s0)
    80001f94:	0007c783          	lbu	a5,0(a5)
    80001f98:	fc0798e3          	bnez	a5,80001f68 <strchr+0x20>
    80001f9c:	00000793          	li	a5,0
    80001fa0:	00078513          	mv	a0,a5
    80001fa4:	02813403          	ld	s0,40(sp)
    80001fa8:	03010113          	addi	sp,sp,48
    80001fac:	00008067          	ret

0000000080001fb0 <strrchr>:
    80001fb0:	fd010113          	addi	sp,sp,-48
    80001fb4:	02813423          	sd	s0,40(sp)
    80001fb8:	03010413          	addi	s0,sp,48
    80001fbc:	fca43c23          	sd	a0,-40(s0)
    80001fc0:	00058793          	mv	a5,a1
    80001fc4:	fcf42a23          	sw	a5,-44(s0)
    80001fc8:	fd843783          	ld	a5,-40(s0)
    80001fcc:	fef43423          	sd	a5,-24(s0)
    80001fd0:	fe043023          	sd	zero,-32(s0)
    80001fd4:	fe843783          	ld	a5,-24(s0)
    80001fd8:	0007c783          	lbu	a5,0(a5)
    80001fdc:	0007871b          	sext.w	a4,a5
    80001fe0:	fd442783          	lw	a5,-44(s0)
    80001fe4:	0007879b          	sext.w	a5,a5
    80001fe8:	00e79c63          	bne	a5,a4,80002000 <strrchr+0x50>
    80001fec:	fe843783          	ld	a5,-24(s0)
    80001ff0:	00178713          	addi	a4,a5,1
    80001ff4:	fee43423          	sd	a4,-24(s0)
    80001ff8:	fef43023          	sd	a5,-32(s0)
    80001ffc:	fd9ff06f          	j	80001fd4 <strrchr+0x24>
    80002000:	fe843783          	ld	a5,-24(s0)
    80002004:	00178713          	addi	a4,a5,1
    80002008:	fee43423          	sd	a4,-24(s0)
    8000200c:	0007c783          	lbu	a5,0(a5)
    80002010:	00078463          	beqz	a5,80002018 <strrchr+0x68>
    80002014:	fc1ff06f          	j	80001fd4 <strrchr+0x24>
    80002018:	00000013          	nop
    8000201c:	fe043783          	ld	a5,-32(s0)
    80002020:	00078513          	mv	a0,a5
    80002024:	02813403          	ld	s0,40(sp)
    80002028:	03010113          	addi	sp,sp,48
    8000202c:	00008067          	ret

0000000080002030 <memcmp>:
    80002030:	fb010113          	addi	sp,sp,-80
    80002034:	04813423          	sd	s0,72(sp)
    80002038:	05010413          	addi	s0,sp,80
    8000203c:	fca43423          	sd	a0,-56(s0)
    80002040:	fcb43023          	sd	a1,-64(s0)
    80002044:	00060793          	mv	a5,a2
    80002048:	faf42e23          	sw	a5,-68(s0)
    8000204c:	fc843783          	ld	a5,-56(s0)
    80002050:	fef43023          	sd	a5,-32(s0)
    80002054:	fc043783          	ld	a5,-64(s0)
    80002058:	fcf43c23          	sd	a5,-40(s0)
    8000205c:	fe042623          	sw	zero,-20(s0)
    80002060:	06c0006f          	j	800020cc <memcmp+0x9c>
    80002064:	fec42783          	lw	a5,-20(s0)
    80002068:	fe043703          	ld	a4,-32(s0)
    8000206c:	00f707b3          	add	a5,a4,a5
    80002070:	0007c683          	lbu	a3,0(a5)
    80002074:	fec42783          	lw	a5,-20(s0)
    80002078:	fd843703          	ld	a4,-40(s0)
    8000207c:	00f707b3          	add	a5,a4,a5
    80002080:	0007c783          	lbu	a5,0(a5)
    80002084:	00068713          	mv	a4,a3
    80002088:	02f70c63          	beq	a4,a5,800020c0 <memcmp+0x90>
    8000208c:	fec42783          	lw	a5,-20(s0)
    80002090:	fe043703          	ld	a4,-32(s0)
    80002094:	00f707b3          	add	a5,a4,a5
    80002098:	0007c783          	lbu	a5,0(a5)
    8000209c:	0007871b          	sext.w	a4,a5
    800020a0:	fec42783          	lw	a5,-20(s0)
    800020a4:	fd843683          	ld	a3,-40(s0)
    800020a8:	00f687b3          	add	a5,a3,a5
    800020ac:	0007c783          	lbu	a5,0(a5)
    800020b0:	0007879b          	sext.w	a5,a5
    800020b4:	40f707bb          	subw	a5,a4,a5
    800020b8:	0007879b          	sext.w	a5,a5
    800020bc:	0240006f          	j	800020e0 <memcmp+0xb0>
    800020c0:	fec42783          	lw	a5,-20(s0)
    800020c4:	0017879b          	addiw	a5,a5,1
    800020c8:	fef42623          	sw	a5,-20(s0)
    800020cc:	fec42703          	lw	a4,-20(s0)
    800020d0:	fbc42783          	lw	a5,-68(s0)
    800020d4:	0007879b          	sext.w	a5,a5
    800020d8:	f8f766e3          	bltu	a4,a5,80002064 <memcmp+0x34>
    800020dc:	00000793          	li	a5,0
    800020e0:	00078513          	mv	a0,a5
    800020e4:	04813403          	ld	s0,72(sp)
    800020e8:	05010113          	addi	sp,sp,80
    800020ec:	00008067          	ret

00000000800020f0 <memcpy>:
    800020f0:	fb010113          	addi	sp,sp,-80
    800020f4:	04813423          	sd	s0,72(sp)
    800020f8:	05010413          	addi	s0,sp,80
    800020fc:	fca43423          	sd	a0,-56(s0)
    80002100:	fcb43023          	sd	a1,-64(s0)
    80002104:	00060793          	mv	a5,a2
    80002108:	faf42e23          	sw	a5,-68(s0)
    8000210c:	fc843783          	ld	a5,-56(s0)
    80002110:	fef43023          	sd	a5,-32(s0)
    80002114:	fc043783          	ld	a5,-64(s0)
    80002118:	fcf43c23          	sd	a5,-40(s0)
    8000211c:	fe042623          	sw	zero,-20(s0)
    80002120:	0300006f          	j	80002150 <memcpy+0x60>
    80002124:	fec46783          	lwu	a5,-20(s0)
    80002128:	fd843703          	ld	a4,-40(s0)
    8000212c:	00f70733          	add	a4,a4,a5
    80002130:	fec46783          	lwu	a5,-20(s0)
    80002134:	fe043683          	ld	a3,-32(s0)
    80002138:	00f687b3          	add	a5,a3,a5
    8000213c:	00074703          	lbu	a4,0(a4)
    80002140:	00e78023          	sb	a4,0(a5)
    80002144:	fec42783          	lw	a5,-20(s0)
    80002148:	0017879b          	addiw	a5,a5,1
    8000214c:	fef42623          	sw	a5,-20(s0)
    80002150:	fec42703          	lw	a4,-20(s0)
    80002154:	fbc42783          	lw	a5,-68(s0)
    80002158:	0007071b          	sext.w	a4,a4
    8000215c:	0007879b          	sext.w	a5,a5
    80002160:	fcf762e3          	bltu	a4,a5,80002124 <memcpy+0x34>
    80002164:	fc843783          	ld	a5,-56(s0)
    80002168:	00078513          	mv	a0,a5
    8000216c:	04813403          	ld	s0,72(sp)
    80002170:	05010113          	addi	sp,sp,80
    80002174:	00008067          	ret

0000000080002178 <memchr>:
    80002178:	fd010113          	addi	sp,sp,-48
    8000217c:	02813423          	sd	s0,40(sp)
    80002180:	03010413          	addi	s0,sp,48
    80002184:	fca43c23          	sd	a0,-40(s0)
    80002188:	00058793          	mv	a5,a1
    8000218c:	00060713          	mv	a4,a2
    80002190:	fcf42a23          	sw	a5,-44(s0)
    80002194:	00070793          	mv	a5,a4
    80002198:	fcf42823          	sw	a5,-48(s0)
    8000219c:	fd843783          	ld	a5,-40(s0)
    800021a0:	fef43023          	sd	a5,-32(s0)
    800021a4:	fe042623          	sw	zero,-20(s0)
    800021a8:	0400006f          	j	800021e8 <memchr+0x70>
    800021ac:	fec42783          	lw	a5,-20(s0)
    800021b0:	fe043703          	ld	a4,-32(s0)
    800021b4:	00f707b3          	add	a5,a4,a5
    800021b8:	0007c783          	lbu	a5,0(a5)
    800021bc:	0007871b          	sext.w	a4,a5
    800021c0:	fd442783          	lw	a5,-44(s0)
    800021c4:	0007879b          	sext.w	a5,a5
    800021c8:	00e79a63          	bne	a5,a4,800021dc <memchr+0x64>
    800021cc:	fec42783          	lw	a5,-20(s0)
    800021d0:	fe043703          	ld	a4,-32(s0)
    800021d4:	00f707b3          	add	a5,a4,a5
    800021d8:	0240006f          	j	800021fc <memchr+0x84>
    800021dc:	fec42783          	lw	a5,-20(s0)
    800021e0:	0017879b          	addiw	a5,a5,1
    800021e4:	fef42623          	sw	a5,-20(s0)
    800021e8:	fec42703          	lw	a4,-20(s0)
    800021ec:	fd042783          	lw	a5,-48(s0)
    800021f0:	0007879b          	sext.w	a5,a5
    800021f4:	faf76ce3          	bltu	a4,a5,800021ac <memchr+0x34>
    800021f8:	00000793          	li	a5,0
    800021fc:	00078513          	mv	a0,a5
    80002200:	02813403          	ld	s0,40(sp)
    80002204:	03010113          	addi	sp,sp,48
    80002208:	00008067          	ret

000000008000220c <memset>:
    8000220c:	fd010113          	addi	sp,sp,-48
    80002210:	02813423          	sd	s0,40(sp)
    80002214:	03010413          	addi	s0,sp,48
    80002218:	fca43c23          	sd	a0,-40(s0)
    8000221c:	00058793          	mv	a5,a1
    80002220:	00060713          	mv	a4,a2
    80002224:	fcf40ba3          	sb	a5,-41(s0)
    80002228:	00070793          	mv	a5,a4
    8000222c:	fcf42823          	sw	a5,-48(s0)
    80002230:	fd843783          	ld	a5,-40(s0)
    80002234:	fef43023          	sd	a5,-32(s0)
    80002238:	fe042623          	sw	zero,-20(s0)
    8000223c:	0240006f          	j	80002260 <memset+0x54>
    80002240:	fec42783          	lw	a5,-20(s0)
    80002244:	fe043703          	ld	a4,-32(s0)
    80002248:	00f707b3          	add	a5,a4,a5
    8000224c:	fd744703          	lbu	a4,-41(s0)
    80002250:	00e78023          	sb	a4,0(a5)
    80002254:	fec42783          	lw	a5,-20(s0)
    80002258:	0017879b          	addiw	a5,a5,1
    8000225c:	fef42623          	sw	a5,-20(s0)
    80002260:	fec42703          	lw	a4,-20(s0)
    80002264:	fd042783          	lw	a5,-48(s0)
    80002268:	0007879b          	sext.w	a5,a5
    8000226c:	fcf76ae3          	bltu	a4,a5,80002240 <memset+0x34>
    80002270:	fe043783          	ld	a5,-32(s0)
    80002274:	00078513          	mv	a0,a5
    80002278:	02813403          	ld	s0,40(sp)
    8000227c:	03010113          	addi	sp,sp,48
    80002280:	00008067          	ret

0000000080002284 <printf>:
    80002284:	e8010113          	addi	sp,sp,-384
    80002288:	12113c23          	sd	ra,312(sp)
    8000228c:	12813823          	sd	s0,304(sp)
    80002290:	14010413          	addi	s0,sp,320
    80002294:	eca43423          	sd	a0,-312(s0)
    80002298:	00b43423          	sd	a1,8(s0)
    8000229c:	00c43823          	sd	a2,16(s0)
    800022a0:	00d43c23          	sd	a3,24(s0)
    800022a4:	02e43023          	sd	a4,32(s0)
    800022a8:	02f43423          	sd	a5,40(s0)
    800022ac:	03043823          	sd	a6,48(s0)
    800022b0:	03143c23          	sd	a7,56(s0)
    800022b4:	ec043c23          	sd	zero,-296(s0)
    800022b8:	ee040793          	addi	a5,s0,-288
    800022bc:	0f800713          	li	a4,248
    800022c0:	00070613          	mv	a2,a4
    800022c4:	00000593          	li	a1,0
    800022c8:	00078513          	mv	a0,a5
    800022cc:	f41ff0ef          	jal	ra,8000220c <memset>
    800022d0:	00a43023          	sd	a0,0(s0)
    800022d4:	ec043823          	sd	zero,-304(s0)
    800022d8:	ec843823          	sd	s0,-304(s0)
    800022dc:	ed043783          	ld	a5,-304(s0)
    800022e0:	00878793          	addi	a5,a5,8
    800022e4:	fef43023          	sd	a5,-32(s0)
    800022e8:	ed840793          	addi	a5,s0,-296
    800022ec:	fe043603          	ld	a2,-32(s0)
    800022f0:	ec843583          	ld	a1,-312(s0)
    800022f4:	00078513          	mv	a0,a5
    800022f8:	698000ef          	jal	ra,80002990 <vsprintf>
    800022fc:	00050793          	mv	a5,a0
    80002300:	fcf42e23          	sw	a5,-36(s0)
    80002304:	fe042623          	sw	zero,-20(s0)
    80002308:	0280006f          	j	80002330 <printf+0xac>
    8000230c:	fec42783          	lw	a5,-20(s0)
    80002310:	ff040713          	addi	a4,s0,-16
    80002314:	00f707b3          	add	a5,a4,a5
    80002318:	ee87c783          	lbu	a5,-280(a5)
    8000231c:	00078513          	mv	a0,a5
    80002320:	fb4fe0ef          	jal	ra,80000ad4 <uart_putc_sync>
    80002324:	fec42783          	lw	a5,-20(s0)
    80002328:	0017879b          	addiw	a5,a5,1
    8000232c:	fef42623          	sw	a5,-20(s0)
    80002330:	fec42703          	lw	a4,-20(s0)
    80002334:	fdc42783          	lw	a5,-36(s0)
    80002338:	0007071b          	sext.w	a4,a4
    8000233c:	0007879b          	sext.w	a5,a5
    80002340:	fcf746e3          	blt	a4,a5,8000230c <printf+0x88>
    80002344:	00000793          	li	a5,0
    80002348:	00078513          	mv	a0,a5
    8000234c:	13813083          	ld	ra,312(sp)
    80002350:	13013403          	ld	s0,304(sp)
    80002354:	18010113          	addi	sp,sp,384
    80002358:	00008067          	ret

000000008000235c <skip_atoi>:
    8000235c:	fd010113          	addi	sp,sp,-48
    80002360:	02813423          	sd	s0,40(sp)
    80002364:	03010413          	addi	s0,sp,48
    80002368:	fca43c23          	sd	a0,-40(s0)
    8000236c:	fe042623          	sw	zero,-20(s0)
    80002370:	0480006f          	j	800023b8 <skip_atoi+0x5c>
    80002374:	fec42703          	lw	a4,-20(s0)
    80002378:	00070793          	mv	a5,a4
    8000237c:	0027979b          	slliw	a5,a5,0x2
    80002380:	00e787bb          	addw	a5,a5,a4
    80002384:	0017979b          	slliw	a5,a5,0x1
    80002388:	0007871b          	sext.w	a4,a5
    8000238c:	fd843783          	ld	a5,-40(s0)
    80002390:	0007b783          	ld	a5,0(a5)
    80002394:	00178613          	addi	a2,a5,1
    80002398:	fd843683          	ld	a3,-40(s0)
    8000239c:	00c6b023          	sd	a2,0(a3)
    800023a0:	0007c783          	lbu	a5,0(a5)
    800023a4:	0007879b          	sext.w	a5,a5
    800023a8:	00f707bb          	addw	a5,a4,a5
    800023ac:	0007879b          	sext.w	a5,a5
    800023b0:	fd07879b          	addiw	a5,a5,-48
    800023b4:	fef42623          	sw	a5,-20(s0)
    800023b8:	fd843783          	ld	a5,-40(s0)
    800023bc:	0007b783          	ld	a5,0(a5)
    800023c0:	0007c783          	lbu	a5,0(a5)
    800023c4:	00078713          	mv	a4,a5
    800023c8:	02f00793          	li	a5,47
    800023cc:	00e7fe63          	bgeu	a5,a4,800023e8 <skip_atoi+0x8c>
    800023d0:	fd843783          	ld	a5,-40(s0)
    800023d4:	0007b783          	ld	a5,0(a5)
    800023d8:	0007c783          	lbu	a5,0(a5)
    800023dc:	00078713          	mv	a4,a5
    800023e0:	03900793          	li	a5,57
    800023e4:	f8e7f8e3          	bgeu	a5,a4,80002374 <skip_atoi+0x18>
    800023e8:	fec42783          	lw	a5,-20(s0)
    800023ec:	00078513          	mv	a0,a5
    800023f0:	02813403          	ld	s0,40(sp)
    800023f4:	03010113          	addi	sp,sp,48
    800023f8:	00008067          	ret

00000000800023fc <number>:
    800023fc:	f7010113          	addi	sp,sp,-144
    80002400:	08813423          	sd	s0,136(sp)
    80002404:	09010413          	addi	s0,sp,144
    80002408:	f8a43423          	sd	a0,-120(s0)
    8000240c:	f8b43023          	sd	a1,-128(s0)
    80002410:	00060593          	mv	a1,a2
    80002414:	00068613          	mv	a2,a3
    80002418:	00070693          	mv	a3,a4
    8000241c:	00078713          	mv	a4,a5
    80002420:	00058793          	mv	a5,a1
    80002424:	f6f42e23          	sw	a5,-132(s0)
    80002428:	00060793          	mv	a5,a2
    8000242c:	f6f42c23          	sw	a5,-136(s0)
    80002430:	00068793          	mv	a5,a3
    80002434:	f6f42a23          	sw	a5,-140(s0)
    80002438:	00070793          	mv	a5,a4
    8000243c:	f6f42823          	sw	a5,-144(s0)
    80002440:	00002797          	auipc	a5,0x2
    80002444:	cc878793          	addi	a5,a5,-824 # 80004108 <textEnd+0x108>
    80002448:	fef43023          	sd	a5,-32(s0)
    8000244c:	f8843783          	ld	a5,-120(s0)
    80002450:	fcf43423          	sd	a5,-56(s0)
    80002454:	f7042783          	lw	a5,-144(s0)
    80002458:	0407f793          	andi	a5,a5,64
    8000245c:	0007879b          	sext.w	a5,a5
    80002460:	00078863          	beqz	a5,80002470 <number+0x74>
    80002464:	00002797          	auipc	a5,0x2
    80002468:	ccc78793          	addi	a5,a5,-820 # 80004130 <textEnd+0x130>
    8000246c:	fef43023          	sd	a5,-32(s0)
    80002470:	f7042783          	lw	a5,-144(s0)
    80002474:	0107f793          	andi	a5,a5,16
    80002478:	0007879b          	sext.w	a5,a5
    8000247c:	00078863          	beqz	a5,8000248c <number+0x90>
    80002480:	f7042783          	lw	a5,-144(s0)
    80002484:	ffe7f793          	andi	a5,a5,-2
    80002488:	f6f42823          	sw	a5,-144(s0)
    8000248c:	f7c42783          	lw	a5,-132(s0)
    80002490:	0007871b          	sext.w	a4,a5
    80002494:	00100793          	li	a5,1
    80002498:	00e7da63          	bge	a5,a4,800024ac <number+0xb0>
    8000249c:	f7c42783          	lw	a5,-132(s0)
    800024a0:	0007871b          	sext.w	a4,a5
    800024a4:	02400793          	li	a5,36
    800024a8:	00e7d663          	bge	a5,a4,800024b4 <number+0xb8>
    800024ac:	00000793          	li	a5,0
    800024b0:	4d00006f          	j	80002980 <number+0x584>
    800024b4:	f7042783          	lw	a5,-144(s0)
    800024b8:	0017f793          	andi	a5,a5,1
    800024bc:	0007879b          	sext.w	a5,a5
    800024c0:	00078663          	beqz	a5,800024cc <number+0xd0>
    800024c4:	03000793          	li	a5,48
    800024c8:	0080006f          	j	800024d0 <number+0xd4>
    800024cc:	02000793          	li	a5,32
    800024d0:	fcf403a3          	sb	a5,-57(s0)
    800024d4:	f7042783          	lw	a5,-144(s0)
    800024d8:	0807f793          	andi	a5,a5,128
    800024dc:	0007879b          	sext.w	a5,a5
    800024e0:	02078c63          	beqz	a5,80002518 <number+0x11c>
    800024e4:	f8043783          	ld	a5,-128(s0)
    800024e8:	0007b787          	fld	fa5,0(a5)
    800024ec:	f2000753          	fmv.d.x	fa4,zero
    800024f0:	a2e797d3          	flt.d	a5,fa5,fa4
    800024f4:	02078263          	beqz	a5,80002518 <number+0x11c>
    800024f8:	02d00793          	li	a5,45
    800024fc:	fef407a3          	sb	a5,-17(s0)
    80002500:	f8043783          	ld	a5,-128(s0)
    80002504:	0007b787          	fld	fa5,0(a5)
    80002508:	22f797d3          	fneg.d	fa5,fa5
    8000250c:	f8043783          	ld	a5,-128(s0)
    80002510:	00f7b027          	fsd	fa5,0(a5)
    80002514:	0940006f          	j	800025a8 <number+0x1ac>
    80002518:	f7042783          	lw	a5,-144(s0)
    8000251c:	0027f793          	andi	a5,a5,2
    80002520:	0007879b          	sext.w	a5,a5
    80002524:	04078863          	beqz	a5,80002574 <number+0x178>
    80002528:	f7042783          	lw	a5,-144(s0)
    8000252c:	0807f793          	andi	a5,a5,128
    80002530:	0007879b          	sext.w	a5,a5
    80002534:	04079063          	bnez	a5,80002574 <number+0x178>
    80002538:	f8043783          	ld	a5,-128(s0)
    8000253c:	0007a783          	lw	a5,0(a5)
    80002540:	0007879b          	sext.w	a5,a5
    80002544:	0207d863          	bgez	a5,80002574 <number+0x178>
    80002548:	02d00793          	li	a5,45
    8000254c:	fef407a3          	sb	a5,-17(s0)
    80002550:	f8043783          	ld	a5,-128(s0)
    80002554:	0007a783          	lw	a5,0(a5)
    80002558:	0007879b          	sext.w	a5,a5
    8000255c:	40f007bb          	negw	a5,a5
    80002560:	0007879b          	sext.w	a5,a5
    80002564:	0007871b          	sext.w	a4,a5
    80002568:	f8043783          	ld	a5,-128(s0)
    8000256c:	00e7a023          	sw	a4,0(a5)
    80002570:	0380006f          	j	800025a8 <number+0x1ac>
    80002574:	f7042783          	lw	a5,-144(s0)
    80002578:	0047f793          	andi	a5,a5,4
    8000257c:	0007879b          	sext.w	a5,a5
    80002580:	02079063          	bnez	a5,800025a0 <number+0x1a4>
    80002584:	f7042783          	lw	a5,-144(s0)
    80002588:	0027979b          	slliw	a5,a5,0x2
    8000258c:	0007879b          	sext.w	a5,a5
    80002590:	0ff7f793          	andi	a5,a5,255
    80002594:	0207f793          	andi	a5,a5,32
    80002598:	0ff7f793          	andi	a5,a5,255
    8000259c:	0080006f          	j	800025a4 <number+0x1a8>
    800025a0:	02b00793          	li	a5,43
    800025a4:	fef407a3          	sb	a5,-17(s0)
    800025a8:	fef44783          	lbu	a5,-17(s0)
    800025ac:	0ff7f793          	andi	a5,a5,255
    800025b0:	00078863          	beqz	a5,800025c0 <number+0x1c4>
    800025b4:	f7842783          	lw	a5,-136(s0)
    800025b8:	fff7879b          	addiw	a5,a5,-1
    800025bc:	f6f42c23          	sw	a5,-136(s0)
    800025c0:	f7042783          	lw	a5,-144(s0)
    800025c4:	0207f793          	andi	a5,a5,32
    800025c8:	0007879b          	sext.w	a5,a5
    800025cc:	04078063          	beqz	a5,8000260c <number+0x210>
    800025d0:	f7c42783          	lw	a5,-132(s0)
    800025d4:	0007871b          	sext.w	a4,a5
    800025d8:	01000793          	li	a5,16
    800025dc:	00f71a63          	bne	a4,a5,800025f0 <number+0x1f4>
    800025e0:	f7842783          	lw	a5,-136(s0)
    800025e4:	ffe7879b          	addiw	a5,a5,-2
    800025e8:	f6f42c23          	sw	a5,-136(s0)
    800025ec:	0200006f          	j	8000260c <number+0x210>
    800025f0:	f7c42783          	lw	a5,-132(s0)
    800025f4:	0007871b          	sext.w	a4,a5
    800025f8:	00800793          	li	a5,8
    800025fc:	00f71863          	bne	a4,a5,8000260c <number+0x210>
    80002600:	f7842783          	lw	a5,-136(s0)
    80002604:	fff7879b          	addiw	a5,a5,-1
    80002608:	f6f42c23          	sw	a5,-136(s0)
    8000260c:	fc042e23          	sw	zero,-36(s0)
    80002610:	f7042783          	lw	a5,-144(s0)
    80002614:	0807f793          	andi	a5,a5,128
    80002618:	0007879b          	sext.w	a5,a5
    8000261c:	10078863          	beqz	a5,8000272c <number+0x330>
    80002620:	f8043783          	ld	a5,-128(s0)
    80002624:	0007b787          	fld	fa5,0(a5)
    80002628:	c21797d3          	fcvt.wu.d	a5,fa5,rtz
    8000262c:	fcf42c23          	sw	a5,-40(s0)
    80002630:	f8043783          	ld	a5,-128(s0)
    80002634:	0007b707          	fld	fa4,0(a5)
    80002638:	fd842783          	lw	a5,-40(s0)
    8000263c:	d21787d3          	fcvt.d.wu	fa5,a5
    80002640:	0af77753          	fsub.d	fa4,fa4,fa5
    80002644:	00002797          	auipc	a5,0x2
    80002648:	c4c78793          	addi	a5,a5,-948 # 80004290 <textEnd+0x290>
    8000264c:	0007b787          	fld	fa5,0(a5)
    80002650:	12f777d3          	fmul.d	fa5,fa4,fa5
    80002654:	c21797d3          	fcvt.wu.d	a5,fa5,rtz
    80002658:	fcf42a23          	sw	a5,-44(s0)
    8000265c:	f7c42783          	lw	a5,-132(s0)
    80002660:	fd442703          	lw	a4,-44(s0)
    80002664:	02f777bb          	remuw	a5,a4,a5
    80002668:	0007879b          	sext.w	a5,a5
    8000266c:	fcf42023          	sw	a5,-64(s0)
    80002670:	f7c42783          	lw	a5,-132(s0)
    80002674:	fd442703          	lw	a4,-44(s0)
    80002678:	02f757bb          	divuw	a5,a4,a5
    8000267c:	fcf42a23          	sw	a5,-44(s0)
    80002680:	fc042783          	lw	a5,-64(s0)
    80002684:	fe043703          	ld	a4,-32(s0)
    80002688:	00f70733          	add	a4,a4,a5
    8000268c:	fdc42783          	lw	a5,-36(s0)
    80002690:	0017869b          	addiw	a3,a5,1
    80002694:	fcd42e23          	sw	a3,-36(s0)
    80002698:	00074703          	lbu	a4,0(a4)
    8000269c:	ff040693          	addi	a3,s0,-16
    800026a0:	00f687b3          	add	a5,a3,a5
    800026a4:	fae78423          	sb	a4,-88(a5)
    800026a8:	fd442783          	lw	a5,-44(s0)
    800026ac:	0007879b          	sext.w	a5,a5
    800026b0:	fa0796e3          	bnez	a5,8000265c <number+0x260>
    800026b4:	fdc42783          	lw	a5,-36(s0)
    800026b8:	0017871b          	addiw	a4,a5,1
    800026bc:	fce42e23          	sw	a4,-36(s0)
    800026c0:	ff040713          	addi	a4,s0,-16
    800026c4:	00f707b3          	add	a5,a4,a5
    800026c8:	02e00713          	li	a4,46
    800026cc:	fae78423          	sb	a4,-88(a5)
    800026d0:	f7c42783          	lw	a5,-132(s0)
    800026d4:	fd842703          	lw	a4,-40(s0)
    800026d8:	02f777bb          	remuw	a5,a4,a5
    800026dc:	0007879b          	sext.w	a5,a5
    800026e0:	fcf42023          	sw	a5,-64(s0)
    800026e4:	f7c42783          	lw	a5,-132(s0)
    800026e8:	fd842703          	lw	a4,-40(s0)
    800026ec:	02f757bb          	divuw	a5,a4,a5
    800026f0:	fcf42c23          	sw	a5,-40(s0)
    800026f4:	fc042783          	lw	a5,-64(s0)
    800026f8:	fe043703          	ld	a4,-32(s0)
    800026fc:	00f70733          	add	a4,a4,a5
    80002700:	fdc42783          	lw	a5,-36(s0)
    80002704:	0017869b          	addiw	a3,a5,1
    80002708:	fcd42e23          	sw	a3,-36(s0)
    8000270c:	00074703          	lbu	a4,0(a4)
    80002710:	ff040693          	addi	a3,s0,-16
    80002714:	00f687b3          	add	a5,a3,a5
    80002718:	fae78423          	sb	a4,-88(a5)
    8000271c:	fd842783          	lw	a5,-40(s0)
    80002720:	0007879b          	sext.w	a5,a5
    80002724:	fa0796e3          	bnez	a5,800026d0 <number+0x2d4>
    80002728:	0980006f          	j	800027c0 <number+0x3c4>
    8000272c:	f8043783          	ld	a5,-128(s0)
    80002730:	0007a783          	lw	a5,0(a5)
    80002734:	08079063          	bnez	a5,800027b4 <number+0x3b8>
    80002738:	fdc42783          	lw	a5,-36(s0)
    8000273c:	0017871b          	addiw	a4,a5,1
    80002740:	fce42e23          	sw	a4,-36(s0)
    80002744:	ff040713          	addi	a4,s0,-16
    80002748:	00f707b3          	add	a5,a4,a5
    8000274c:	03000713          	li	a4,48
    80002750:	fae78423          	sb	a4,-88(a5)
    80002754:	06c0006f          	j	800027c0 <number+0x3c4>
    80002758:	f8043783          	ld	a5,-128(s0)
    8000275c:	0007a703          	lw	a4,0(a5)
    80002760:	f7c42783          	lw	a5,-132(s0)
    80002764:	02f777bb          	remuw	a5,a4,a5
    80002768:	0007879b          	sext.w	a5,a5
    8000276c:	fcf42023          	sw	a5,-64(s0)
    80002770:	f8043783          	ld	a5,-128(s0)
    80002774:	0007a703          	lw	a4,0(a5)
    80002778:	f7c42783          	lw	a5,-132(s0)
    8000277c:	02f757bb          	divuw	a5,a4,a5
    80002780:	0007871b          	sext.w	a4,a5
    80002784:	f8043783          	ld	a5,-128(s0)
    80002788:	00e7a023          	sw	a4,0(a5)
    8000278c:	fc042783          	lw	a5,-64(s0)
    80002790:	fe043703          	ld	a4,-32(s0)
    80002794:	00f70733          	add	a4,a4,a5
    80002798:	fdc42783          	lw	a5,-36(s0)
    8000279c:	0017869b          	addiw	a3,a5,1
    800027a0:	fcd42e23          	sw	a3,-36(s0)
    800027a4:	00074703          	lbu	a4,0(a4)
    800027a8:	ff040693          	addi	a3,s0,-16
    800027ac:	00f687b3          	add	a5,a3,a5
    800027b0:	fae78423          	sb	a4,-88(a5)
    800027b4:	f8043783          	ld	a5,-128(s0)
    800027b8:	0007a783          	lw	a5,0(a5)
    800027bc:	f8079ee3          	bnez	a5,80002758 <number+0x35c>
    800027c0:	fdc42703          	lw	a4,-36(s0)
    800027c4:	f7442783          	lw	a5,-140(s0)
    800027c8:	0007071b          	sext.w	a4,a4
    800027cc:	0007879b          	sext.w	a5,a5
    800027d0:	00e7d663          	bge	a5,a4,800027dc <number+0x3e0>
    800027d4:	fdc42783          	lw	a5,-36(s0)
    800027d8:	f6f42a23          	sw	a5,-140(s0)
    800027dc:	f7842703          	lw	a4,-136(s0)
    800027e0:	f7442783          	lw	a5,-140(s0)
    800027e4:	40f707bb          	subw	a5,a4,a5
    800027e8:	f6f42c23          	sw	a5,-136(s0)
    800027ec:	f7042783          	lw	a5,-144(s0)
    800027f0:	0117f793          	andi	a5,a5,17
    800027f4:	0007879b          	sext.w	a5,a5
    800027f8:	02079663          	bnez	a5,80002824 <number+0x428>
    800027fc:	0180006f          	j	80002814 <number+0x418>
    80002800:	f8843783          	ld	a5,-120(s0)
    80002804:	00178713          	addi	a4,a5,1
    80002808:	f8e43423          	sd	a4,-120(s0)
    8000280c:	02000713          	li	a4,32
    80002810:	00e78023          	sb	a4,0(a5)
    80002814:	f7842783          	lw	a5,-136(s0)
    80002818:	fff7871b          	addiw	a4,a5,-1
    8000281c:	f6e42c23          	sw	a4,-136(s0)
    80002820:	fef040e3          	bgtz	a5,80002800 <number+0x404>
    80002824:	fef44783          	lbu	a5,-17(s0)
    80002828:	0ff7f793          	andi	a5,a5,255
    8000282c:	00078c63          	beqz	a5,80002844 <number+0x448>
    80002830:	f8843783          	ld	a5,-120(s0)
    80002834:	00178713          	addi	a4,a5,1
    80002838:	f8e43423          	sd	a4,-120(s0)
    8000283c:	fef44703          	lbu	a4,-17(s0)
    80002840:	00e78023          	sb	a4,0(a5)
    80002844:	f7042783          	lw	a5,-144(s0)
    80002848:	0207f793          	andi	a5,a5,32
    8000284c:	0007879b          	sext.w	a5,a5
    80002850:	06078463          	beqz	a5,800028b8 <number+0x4bc>
    80002854:	f7c42783          	lw	a5,-132(s0)
    80002858:	0007871b          	sext.w	a4,a5
    8000285c:	00800793          	li	a5,8
    80002860:	00f71e63          	bne	a4,a5,8000287c <number+0x480>
    80002864:	f8843783          	ld	a5,-120(s0)
    80002868:	00178713          	addi	a4,a5,1
    8000286c:	f8e43423          	sd	a4,-120(s0)
    80002870:	03000713          	li	a4,48
    80002874:	00e78023          	sb	a4,0(a5)
    80002878:	0400006f          	j	800028b8 <number+0x4bc>
    8000287c:	f7c42783          	lw	a5,-132(s0)
    80002880:	0007871b          	sext.w	a4,a5
    80002884:	01000793          	li	a5,16
    80002888:	02f71863          	bne	a4,a5,800028b8 <number+0x4bc>
    8000288c:	f8843783          	ld	a5,-120(s0)
    80002890:	00178713          	addi	a4,a5,1
    80002894:	f8e43423          	sd	a4,-120(s0)
    80002898:	03000713          	li	a4,48
    8000289c:	00e78023          	sb	a4,0(a5)
    800028a0:	f8843783          	ld	a5,-120(s0)
    800028a4:	00178713          	addi	a4,a5,1
    800028a8:	f8e43423          	sd	a4,-120(s0)
    800028ac:	fe043703          	ld	a4,-32(s0)
    800028b0:	02174703          	lbu	a4,33(a4)
    800028b4:	00e78023          	sb	a4,0(a5)
    800028b8:	f7042783          	lw	a5,-144(s0)
    800028bc:	0107f793          	andi	a5,a5,16
    800028c0:	0007879b          	sext.w	a5,a5
    800028c4:	04079263          	bnez	a5,80002908 <number+0x50c>
    800028c8:	0180006f          	j	800028e0 <number+0x4e4>
    800028cc:	f8843783          	ld	a5,-120(s0)
    800028d0:	00178713          	addi	a4,a5,1
    800028d4:	f8e43423          	sd	a4,-120(s0)
    800028d8:	fc744703          	lbu	a4,-57(s0)
    800028dc:	00e78023          	sb	a4,0(a5)
    800028e0:	f7842783          	lw	a5,-136(s0)
    800028e4:	fff7871b          	addiw	a4,a5,-1
    800028e8:	f6e42c23          	sw	a4,-136(s0)
    800028ec:	fef040e3          	bgtz	a5,800028cc <number+0x4d0>
    800028f0:	0180006f          	j	80002908 <number+0x50c>
    800028f4:	f8843783          	ld	a5,-120(s0)
    800028f8:	00178713          	addi	a4,a5,1
    800028fc:	f8e43423          	sd	a4,-120(s0)
    80002900:	03000713          	li	a4,48
    80002904:	00e78023          	sb	a4,0(a5)
    80002908:	f7442783          	lw	a5,-140(s0)
    8000290c:	fff7871b          	addiw	a4,a5,-1
    80002910:	f6e42a23          	sw	a4,-140(s0)
    80002914:	fdc42703          	lw	a4,-36(s0)
    80002918:	0007071b          	sext.w	a4,a4
    8000291c:	fcf74ce3          	blt	a4,a5,800028f4 <number+0x4f8>
    80002920:	0240006f          	j	80002944 <number+0x548>
    80002924:	f8843783          	ld	a5,-120(s0)
    80002928:	00178713          	addi	a4,a5,1
    8000292c:	f8e43423          	sd	a4,-120(s0)
    80002930:	fdc42703          	lw	a4,-36(s0)
    80002934:	ff040693          	addi	a3,s0,-16
    80002938:	00e68733          	add	a4,a3,a4
    8000293c:	fa874703          	lbu	a4,-88(a4)
    80002940:	00e78023          	sb	a4,0(a5)
    80002944:	fdc42783          	lw	a5,-36(s0)
    80002948:	fff7871b          	addiw	a4,a5,-1
    8000294c:	fce42e23          	sw	a4,-36(s0)
    80002950:	fcf04ae3          	bgtz	a5,80002924 <number+0x528>
    80002954:	0180006f          	j	8000296c <number+0x570>
    80002958:	f8843783          	ld	a5,-120(s0)
    8000295c:	00178713          	addi	a4,a5,1
    80002960:	f8e43423          	sd	a4,-120(s0)
    80002964:	02000713          	li	a4,32
    80002968:	00e78023          	sb	a4,0(a5)
    8000296c:	f7842783          	lw	a5,-136(s0)
    80002970:	fff7871b          	addiw	a4,a5,-1
    80002974:	f6e42c23          	sw	a4,-136(s0)
    80002978:	fef040e3          	bgtz	a5,80002958 <number+0x55c>
    8000297c:	f8843783          	ld	a5,-120(s0)
    80002980:	00078513          	mv	a0,a5
    80002984:	08813403          	ld	s0,136(sp)
    80002988:	09010113          	addi	sp,sp,144
    8000298c:	00008067          	ret

0000000080002990 <vsprintf>:
    80002990:	f9010113          	addi	sp,sp,-112
    80002994:	06113423          	sd	ra,104(sp)
    80002998:	06813023          	sd	s0,96(sp)
    8000299c:	07010413          	addi	s0,sp,112
    800029a0:	faa43423          	sd	a0,-88(s0)
    800029a4:	fab43023          	sd	a1,-96(s0)
    800029a8:	f8c43c23          	sd	a2,-104(s0)
    800029ac:	fa843783          	ld	a5,-88(s0)
    800029b0:	fef43023          	sd	a5,-32(s0)
    800029b4:	6cc0006f          	j	80003080 <vsprintf+0x6f0>
    800029b8:	fa043783          	ld	a5,-96(s0)
    800029bc:	0007c783          	lbu	a5,0(a5)
    800029c0:	00078713          	mv	a4,a5
    800029c4:	02500793          	li	a5,37
    800029c8:	02f70063          	beq	a4,a5,800029e8 <vsprintf+0x58>
    800029cc:	fa043703          	ld	a4,-96(s0)
    800029d0:	fe043783          	ld	a5,-32(s0)
    800029d4:	00178693          	addi	a3,a5,1
    800029d8:	fed43023          	sd	a3,-32(s0)
    800029dc:	00074703          	lbu	a4,0(a4)
    800029e0:	00e78023          	sb	a4,0(a5)
    800029e4:	6900006f          	j	80003074 <vsprintf+0x6e4>
    800029e8:	fc042a23          	sw	zero,-44(s0)
    800029ec:	fa043783          	ld	a5,-96(s0)
    800029f0:	00178793          	addi	a5,a5,1
    800029f4:	faf43023          	sd	a5,-96(s0)
    800029f8:	fa043783          	ld	a5,-96(s0)
    800029fc:	0007c783          	lbu	a5,0(a5)
    80002a00:	0007879b          	sext.w	a5,a5
    80002a04:	fe07869b          	addiw	a3,a5,-32
    80002a08:	0006871b          	sext.w	a4,a3
    80002a0c:	01000793          	li	a5,16
    80002a10:	08e7e263          	bltu	a5,a4,80002a94 <vsprintf+0x104>
    80002a14:	02069793          	slli	a5,a3,0x20
    80002a18:	0207d793          	srli	a5,a5,0x20
    80002a1c:	00279713          	slli	a4,a5,0x2
    80002a20:	00001797          	auipc	a5,0x1
    80002a24:	74c78793          	addi	a5,a5,1868 # 8000416c <textEnd+0x16c>
    80002a28:	00f707b3          	add	a5,a4,a5
    80002a2c:	0007a783          	lw	a5,0(a5)
    80002a30:	0007871b          	sext.w	a4,a5
    80002a34:	00001797          	auipc	a5,0x1
    80002a38:	73878793          	addi	a5,a5,1848 # 8000416c <textEnd+0x16c>
    80002a3c:	00f707b3          	add	a5,a4,a5
    80002a40:	00078067          	jr	a5
    80002a44:	fd442783          	lw	a5,-44(s0)
    80002a48:	0107e793          	ori	a5,a5,16
    80002a4c:	fcf42a23          	sw	a5,-44(s0)
    80002a50:	f9dff06f          	j	800029ec <vsprintf+0x5c>
    80002a54:	fd442783          	lw	a5,-44(s0)
    80002a58:	0047e793          	ori	a5,a5,4
    80002a5c:	fcf42a23          	sw	a5,-44(s0)
    80002a60:	f8dff06f          	j	800029ec <vsprintf+0x5c>
    80002a64:	fd442783          	lw	a5,-44(s0)
    80002a68:	0087e793          	ori	a5,a5,8
    80002a6c:	fcf42a23          	sw	a5,-44(s0)
    80002a70:	f7dff06f          	j	800029ec <vsprintf+0x5c>
    80002a74:	fd442783          	lw	a5,-44(s0)
    80002a78:	0207e793          	ori	a5,a5,32
    80002a7c:	fcf42a23          	sw	a5,-44(s0)
    80002a80:	f6dff06f          	j	800029ec <vsprintf+0x5c>
    80002a84:	fd442783          	lw	a5,-44(s0)
    80002a88:	0017e793          	ori	a5,a5,1
    80002a8c:	fcf42a23          	sw	a5,-44(s0)
    80002a90:	f5dff06f          	j	800029ec <vsprintf+0x5c>
    80002a94:	fff00793          	li	a5,-1
    80002a98:	fcf42823          	sw	a5,-48(s0)
    80002a9c:	fa043783          	ld	a5,-96(s0)
    80002aa0:	0007c783          	lbu	a5,0(a5)
    80002aa4:	00078713          	mv	a4,a5
    80002aa8:	02f00793          	li	a5,47
    80002aac:	02e7f863          	bgeu	a5,a4,80002adc <vsprintf+0x14c>
    80002ab0:	fa043783          	ld	a5,-96(s0)
    80002ab4:	0007c783          	lbu	a5,0(a5)
    80002ab8:	00078713          	mv	a4,a5
    80002abc:	03900793          	li	a5,57
    80002ac0:	00e7ee63          	bltu	a5,a4,80002adc <vsprintf+0x14c>
    80002ac4:	fa040793          	addi	a5,s0,-96
    80002ac8:	00078513          	mv	a0,a5
    80002acc:	891ff0ef          	jal	ra,8000235c <skip_atoi>
    80002ad0:	00050793          	mv	a5,a0
    80002ad4:	fcf42823          	sw	a5,-48(s0)
    80002ad8:	0600006f          	j	80002b38 <vsprintf+0x1a8>
    80002adc:	fa043783          	ld	a5,-96(s0)
    80002ae0:	0007c783          	lbu	a5,0(a5)
    80002ae4:	00078713          	mv	a4,a5
    80002ae8:	02a00793          	li	a5,42
    80002aec:	04f71663          	bne	a4,a5,80002b38 <vsprintf+0x1a8>
    80002af0:	fa043783          	ld	a5,-96(s0)
    80002af4:	00178793          	addi	a5,a5,1
    80002af8:	faf43023          	sd	a5,-96(s0)
    80002afc:	f9843783          	ld	a5,-104(s0)
    80002b00:	00878793          	addi	a5,a5,8
    80002b04:	f8f43c23          	sd	a5,-104(s0)
    80002b08:	f9843783          	ld	a5,-104(s0)
    80002b0c:	ff87a783          	lw	a5,-8(a5)
    80002b10:	fcf42823          	sw	a5,-48(s0)
    80002b14:	fd042783          	lw	a5,-48(s0)
    80002b18:	0007879b          	sext.w	a5,a5
    80002b1c:	0007de63          	bgez	a5,80002b38 <vsprintf+0x1a8>
    80002b20:	fd042783          	lw	a5,-48(s0)
    80002b24:	40f007bb          	negw	a5,a5
    80002b28:	fcf42823          	sw	a5,-48(s0)
    80002b2c:	fd442783          	lw	a5,-44(s0)
    80002b30:	0107e793          	ori	a5,a5,16
    80002b34:	fcf42a23          	sw	a5,-44(s0)
    80002b38:	fff00793          	li	a5,-1
    80002b3c:	fcf42623          	sw	a5,-52(s0)
    80002b40:	fa043783          	ld	a5,-96(s0)
    80002b44:	0007c783          	lbu	a5,0(a5)
    80002b48:	00078713          	mv	a4,a5
    80002b4c:	02e00793          	li	a5,46
    80002b50:	08f71663          	bne	a4,a5,80002bdc <vsprintf+0x24c>
    80002b54:	fa043783          	ld	a5,-96(s0)
    80002b58:	00178793          	addi	a5,a5,1
    80002b5c:	faf43023          	sd	a5,-96(s0)
    80002b60:	fa043783          	ld	a5,-96(s0)
    80002b64:	0007c783          	lbu	a5,0(a5)
    80002b68:	00078713          	mv	a4,a5
    80002b6c:	02f00793          	li	a5,47
    80002b70:	02e7f863          	bgeu	a5,a4,80002ba0 <vsprintf+0x210>
    80002b74:	fa043783          	ld	a5,-96(s0)
    80002b78:	0007c783          	lbu	a5,0(a5)
    80002b7c:	00078713          	mv	a4,a5
    80002b80:	03900793          	li	a5,57
    80002b84:	00e7ee63          	bltu	a5,a4,80002ba0 <vsprintf+0x210>
    80002b88:	fa040793          	addi	a5,s0,-96
    80002b8c:	00078513          	mv	a0,a5
    80002b90:	fccff0ef          	jal	ra,8000235c <skip_atoi>
    80002b94:	00050793          	mv	a5,a0
    80002b98:	fcf42623          	sw	a5,-52(s0)
    80002b9c:	0300006f          	j	80002bcc <vsprintf+0x23c>
    80002ba0:	fa043783          	ld	a5,-96(s0)
    80002ba4:	0007c783          	lbu	a5,0(a5)
    80002ba8:	00078713          	mv	a4,a5
    80002bac:	02a00793          	li	a5,42
    80002bb0:	00f71e63          	bne	a4,a5,80002bcc <vsprintf+0x23c>
    80002bb4:	f9843783          	ld	a5,-104(s0)
    80002bb8:	00878793          	addi	a5,a5,8
    80002bbc:	f8f43c23          	sd	a5,-104(s0)
    80002bc0:	f9843783          	ld	a5,-104(s0)
    80002bc4:	ff87a783          	lw	a5,-8(a5)
    80002bc8:	fcf42623          	sw	a5,-52(s0)
    80002bcc:	fcc42783          	lw	a5,-52(s0)
    80002bd0:	0007879b          	sext.w	a5,a5
    80002bd4:	0007d463          	bgez	a5,80002bdc <vsprintf+0x24c>
    80002bd8:	fc042623          	sw	zero,-52(s0)
    80002bdc:	fff00793          	li	a5,-1
    80002be0:	fcf42423          	sw	a5,-56(s0)
    80002be4:	fa043783          	ld	a5,-96(s0)
    80002be8:	0007c783          	lbu	a5,0(a5)
    80002bec:	00078713          	mv	a4,a5
    80002bf0:	06800793          	li	a5,104
    80002bf4:	02f70663          	beq	a4,a5,80002c20 <vsprintf+0x290>
    80002bf8:	fa043783          	ld	a5,-96(s0)
    80002bfc:	0007c783          	lbu	a5,0(a5)
    80002c00:	00078713          	mv	a4,a5
    80002c04:	06c00793          	li	a5,108
    80002c08:	00f70c63          	beq	a4,a5,80002c20 <vsprintf+0x290>
    80002c0c:	fa043783          	ld	a5,-96(s0)
    80002c10:	0007c783          	lbu	a5,0(a5)
    80002c14:	00078713          	mv	a4,a5
    80002c18:	04c00793          	li	a5,76
    80002c1c:	00f71e63          	bne	a4,a5,80002c38 <vsprintf+0x2a8>
    80002c20:	fa043783          	ld	a5,-96(s0)
    80002c24:	0007c783          	lbu	a5,0(a5)
    80002c28:	fcf42423          	sw	a5,-56(s0)
    80002c2c:	fa043783          	ld	a5,-96(s0)
    80002c30:	00178793          	addi	a5,a5,1
    80002c34:	faf43023          	sd	a5,-96(s0)
    80002c38:	fa043783          	ld	a5,-96(s0)
    80002c3c:	0007c783          	lbu	a5,0(a5)
    80002c40:	0007879b          	sext.w	a5,a5
    80002c44:	fa87869b          	addiw	a3,a5,-88
    80002c48:	0006871b          	sext.w	a4,a3
    80002c4c:	02000793          	li	a5,32
    80002c50:	3ce7e263          	bltu	a5,a4,80003014 <vsprintf+0x684>
    80002c54:	02069793          	slli	a5,a3,0x20
    80002c58:	0207d793          	srli	a5,a5,0x20
    80002c5c:	00279713          	slli	a4,a5,0x2
    80002c60:	00001797          	auipc	a5,0x1
    80002c64:	55078793          	addi	a5,a5,1360 # 800041b0 <textEnd+0x1b0>
    80002c68:	00f707b3          	add	a5,a4,a5
    80002c6c:	0007a783          	lw	a5,0(a5)
    80002c70:	0007871b          	sext.w	a4,a5
    80002c74:	00001797          	auipc	a5,0x1
    80002c78:	53c78793          	addi	a5,a5,1340 # 800041b0 <textEnd+0x1b0>
    80002c7c:	00f707b3          	add	a5,a4,a5
    80002c80:	00078067          	jr	a5
    80002c84:	fd442783          	lw	a5,-44(s0)
    80002c88:	0107f793          	andi	a5,a5,16
    80002c8c:	0007879b          	sext.w	a5,a5
    80002c90:	02079a63          	bnez	a5,80002cc4 <vsprintf+0x334>
    80002c94:	0180006f          	j	80002cac <vsprintf+0x31c>
    80002c98:	fe043783          	ld	a5,-32(s0)
    80002c9c:	00178713          	addi	a4,a5,1
    80002ca0:	fee43023          	sd	a4,-32(s0)
    80002ca4:	02000713          	li	a4,32
    80002ca8:	00e78023          	sb	a4,0(a5)
    80002cac:	fd042783          	lw	a5,-48(s0)
    80002cb0:	fff7879b          	addiw	a5,a5,-1
    80002cb4:	fcf42823          	sw	a5,-48(s0)
    80002cb8:	fd042783          	lw	a5,-48(s0)
    80002cbc:	0007879b          	sext.w	a5,a5
    80002cc0:	fcf04ce3          	bgtz	a5,80002c98 <vsprintf+0x308>
    80002cc4:	f9843783          	ld	a5,-104(s0)
    80002cc8:	00878793          	addi	a5,a5,8
    80002ccc:	f8f43c23          	sd	a5,-104(s0)
    80002cd0:	f9843783          	ld	a5,-104(s0)
    80002cd4:	ff878793          	addi	a5,a5,-8
    80002cd8:	0007a683          	lw	a3,0(a5)
    80002cdc:	fe043783          	ld	a5,-32(s0)
    80002ce0:	00178713          	addi	a4,a5,1
    80002ce4:	fee43023          	sd	a4,-32(s0)
    80002ce8:	0ff6f713          	andi	a4,a3,255
    80002cec:	00e78023          	sb	a4,0(a5)
    80002cf0:	0180006f          	j	80002d08 <vsprintf+0x378>
    80002cf4:	fe043783          	ld	a5,-32(s0)
    80002cf8:	00178713          	addi	a4,a5,1
    80002cfc:	fee43023          	sd	a4,-32(s0)
    80002d00:	02000713          	li	a4,32
    80002d04:	00e78023          	sb	a4,0(a5)
    80002d08:	fd042783          	lw	a5,-48(s0)
    80002d0c:	fff7879b          	addiw	a5,a5,-1
    80002d10:	fcf42823          	sw	a5,-48(s0)
    80002d14:	fd042783          	lw	a5,-48(s0)
    80002d18:	0007879b          	sext.w	a5,a5
    80002d1c:	fcf04ce3          	bgtz	a5,80002cf4 <vsprintf+0x364>
    80002d20:	3540006f          	j	80003074 <vsprintf+0x6e4>
    80002d24:	f9843783          	ld	a5,-104(s0)
    80002d28:	00878793          	addi	a5,a5,8
    80002d2c:	f8f43c23          	sd	a5,-104(s0)
    80002d30:	f9843783          	ld	a5,-104(s0)
    80002d34:	ff87b783          	ld	a5,-8(a5)
    80002d38:	fcf43c23          	sd	a5,-40(s0)
    80002d3c:	fd843503          	ld	a0,-40(s0)
    80002d40:	f65fe0ef          	jal	ra,80001ca4 <strlen>
    80002d44:	00050793          	mv	a5,a0
    80002d48:	0007879b          	sext.w	a5,a5
    80002d4c:	fef42623          	sw	a5,-20(s0)
    80002d50:	fcc42783          	lw	a5,-52(s0)
    80002d54:	0007879b          	sext.w	a5,a5
    80002d58:	0007d863          	bgez	a5,80002d68 <vsprintf+0x3d8>
    80002d5c:	fec42783          	lw	a5,-20(s0)
    80002d60:	fcf42623          	sw	a5,-52(s0)
    80002d64:	0200006f          	j	80002d84 <vsprintf+0x3f4>
    80002d68:	fec42703          	lw	a4,-20(s0)
    80002d6c:	fcc42783          	lw	a5,-52(s0)
    80002d70:	0007071b          	sext.w	a4,a4
    80002d74:	0007879b          	sext.w	a5,a5
    80002d78:	00e7d663          	bge	a5,a4,80002d84 <vsprintf+0x3f4>
    80002d7c:	fcc42783          	lw	a5,-52(s0)
    80002d80:	fef42623          	sw	a5,-20(s0)
    80002d84:	fd442783          	lw	a5,-44(s0)
    80002d88:	0107f793          	andi	a5,a5,16
    80002d8c:	0007879b          	sext.w	a5,a5
    80002d90:	02079a63          	bnez	a5,80002dc4 <vsprintf+0x434>
    80002d94:	0180006f          	j	80002dac <vsprintf+0x41c>
    80002d98:	fe043783          	ld	a5,-32(s0)
    80002d9c:	00178713          	addi	a4,a5,1
    80002da0:	fee43023          	sd	a4,-32(s0)
    80002da4:	02000713          	li	a4,32
    80002da8:	00e78023          	sb	a4,0(a5)
    80002dac:	fd042783          	lw	a5,-48(s0)
    80002db0:	fff7871b          	addiw	a4,a5,-1
    80002db4:	fce42823          	sw	a4,-48(s0)
    80002db8:	fec42703          	lw	a4,-20(s0)
    80002dbc:	0007071b          	sext.w	a4,a4
    80002dc0:	fcf74ce3          	blt	a4,a5,80002d98 <vsprintf+0x408>
    80002dc4:	fe042423          	sw	zero,-24(s0)
    80002dc8:	0300006f          	j	80002df8 <vsprintf+0x468>
    80002dcc:	fd843703          	ld	a4,-40(s0)
    80002dd0:	00170793          	addi	a5,a4,1
    80002dd4:	fcf43c23          	sd	a5,-40(s0)
    80002dd8:	fe043783          	ld	a5,-32(s0)
    80002ddc:	00178693          	addi	a3,a5,1
    80002de0:	fed43023          	sd	a3,-32(s0)
    80002de4:	00074703          	lbu	a4,0(a4)
    80002de8:	00e78023          	sb	a4,0(a5)
    80002dec:	fe842783          	lw	a5,-24(s0)
    80002df0:	0017879b          	addiw	a5,a5,1
    80002df4:	fef42423          	sw	a5,-24(s0)
    80002df8:	fe842703          	lw	a4,-24(s0)
    80002dfc:	fec42783          	lw	a5,-20(s0)
    80002e00:	0007071b          	sext.w	a4,a4
    80002e04:	0007879b          	sext.w	a5,a5
    80002e08:	fcf742e3          	blt	a4,a5,80002dcc <vsprintf+0x43c>
    80002e0c:	0180006f          	j	80002e24 <vsprintf+0x494>
    80002e10:	fe043783          	ld	a5,-32(s0)
    80002e14:	00178713          	addi	a4,a5,1
    80002e18:	fee43023          	sd	a4,-32(s0)
    80002e1c:	02000713          	li	a4,32
    80002e20:	00e78023          	sb	a4,0(a5)
    80002e24:	fd042783          	lw	a5,-48(s0)
    80002e28:	fff7871b          	addiw	a4,a5,-1
    80002e2c:	fce42823          	sw	a4,-48(s0)
    80002e30:	fec42703          	lw	a4,-20(s0)
    80002e34:	0007071b          	sext.w	a4,a4
    80002e38:	fcf74ce3          	blt	a4,a5,80002e10 <vsprintf+0x480>
    80002e3c:	2380006f          	j	80003074 <vsprintf+0x6e4>
    80002e40:	f9843783          	ld	a5,-104(s0)
    80002e44:	00878793          	addi	a5,a5,8
    80002e48:	f8f43c23          	sd	a5,-104(s0)
    80002e4c:	f9843783          	ld	a5,-104(s0)
    80002e50:	ff878793          	addi	a5,a5,-8
    80002e54:	0007b783          	ld	a5,0(a5)
    80002e58:	0007879b          	sext.w	a5,a5
    80002e5c:	faf42e23          	sw	a5,-68(s0)
    80002e60:	fd442783          	lw	a5,-44(s0)
    80002e64:	fcc42703          	lw	a4,-52(s0)
    80002e68:	fd042683          	lw	a3,-48(s0)
    80002e6c:	fbc40593          	addi	a1,s0,-68
    80002e70:	00800613          	li	a2,8
    80002e74:	fe043503          	ld	a0,-32(s0)
    80002e78:	d84ff0ef          	jal	ra,800023fc <number>
    80002e7c:	fea43023          	sd	a0,-32(s0)
    80002e80:	1f40006f          	j	80003074 <vsprintf+0x6e4>
    80002e84:	fd042783          	lw	a5,-48(s0)
    80002e88:	0007871b          	sext.w	a4,a5
    80002e8c:	fff00793          	li	a5,-1
    80002e90:	00f71c63          	bne	a4,a5,80002ea8 <vsprintf+0x518>
    80002e94:	00800793          	li	a5,8
    80002e98:	fcf42823          	sw	a5,-48(s0)
    80002e9c:	fd442783          	lw	a5,-44(s0)
    80002ea0:	0017e793          	ori	a5,a5,1
    80002ea4:	fcf42a23          	sw	a5,-44(s0)
    80002ea8:	f9843783          	ld	a5,-104(s0)
    80002eac:	00878793          	addi	a5,a5,8
    80002eb0:	f8f43c23          	sd	a5,-104(s0)
    80002eb4:	f9843783          	ld	a5,-104(s0)
    80002eb8:	ff878793          	addi	a5,a5,-8
    80002ebc:	0007b783          	ld	a5,0(a5)
    80002ec0:	0007879b          	sext.w	a5,a5
    80002ec4:	faf42e23          	sw	a5,-68(s0)
    80002ec8:	fd442783          	lw	a5,-44(s0)
    80002ecc:	fcc42703          	lw	a4,-52(s0)
    80002ed0:	fd042683          	lw	a3,-48(s0)
    80002ed4:	fbc40593          	addi	a1,s0,-68
    80002ed8:	01000613          	li	a2,16
    80002edc:	fe043503          	ld	a0,-32(s0)
    80002ee0:	d1cff0ef          	jal	ra,800023fc <number>
    80002ee4:	fea43023          	sd	a0,-32(s0)
    80002ee8:	18c0006f          	j	80003074 <vsprintf+0x6e4>
    80002eec:	fd442783          	lw	a5,-44(s0)
    80002ef0:	0407e793          	ori	a5,a5,64
    80002ef4:	fcf42a23          	sw	a5,-44(s0)
    80002ef8:	f9843783          	ld	a5,-104(s0)
    80002efc:	00878793          	addi	a5,a5,8
    80002f00:	f8f43c23          	sd	a5,-104(s0)
    80002f04:	f9843783          	ld	a5,-104(s0)
    80002f08:	ff878793          	addi	a5,a5,-8
    80002f0c:	0007b783          	ld	a5,0(a5)
    80002f10:	0007879b          	sext.w	a5,a5
    80002f14:	faf42e23          	sw	a5,-68(s0)
    80002f18:	fd442783          	lw	a5,-44(s0)
    80002f1c:	fcc42703          	lw	a4,-52(s0)
    80002f20:	fd042683          	lw	a3,-48(s0)
    80002f24:	fbc40593          	addi	a1,s0,-68
    80002f28:	01000613          	li	a2,16
    80002f2c:	fe043503          	ld	a0,-32(s0)
    80002f30:	cccff0ef          	jal	ra,800023fc <number>
    80002f34:	fea43023          	sd	a0,-32(s0)
    80002f38:	13c0006f          	j	80003074 <vsprintf+0x6e4>
    80002f3c:	fd442783          	lw	a5,-44(s0)
    80002f40:	0027e793          	ori	a5,a5,2
    80002f44:	fcf42a23          	sw	a5,-44(s0)
    80002f48:	f9843783          	ld	a5,-104(s0)
    80002f4c:	00878793          	addi	a5,a5,8
    80002f50:	f8f43c23          	sd	a5,-104(s0)
    80002f54:	f9843783          	ld	a5,-104(s0)
    80002f58:	ff878793          	addi	a5,a5,-8
    80002f5c:	0007b783          	ld	a5,0(a5)
    80002f60:	0007879b          	sext.w	a5,a5
    80002f64:	faf42e23          	sw	a5,-68(s0)
    80002f68:	fd442783          	lw	a5,-44(s0)
    80002f6c:	fcc42703          	lw	a4,-52(s0)
    80002f70:	fd042683          	lw	a3,-48(s0)
    80002f74:	fbc40593          	addi	a1,s0,-68
    80002f78:	00a00613          	li	a2,10
    80002f7c:	fe043503          	ld	a0,-32(s0)
    80002f80:	c7cff0ef          	jal	ra,800023fc <number>
    80002f84:	fea43023          	sd	a0,-32(s0)
    80002f88:	0ec0006f          	j	80003074 <vsprintf+0x6e4>
    80002f8c:	f9843783          	ld	a5,-104(s0)
    80002f90:	00878793          	addi	a5,a5,8
    80002f94:	f8f43c23          	sd	a5,-104(s0)
    80002f98:	f9843783          	ld	a5,-104(s0)
    80002f9c:	ff87b783          	ld	a5,-8(a5)
    80002fa0:	fcf43023          	sd	a5,-64(s0)
    80002fa4:	fe043703          	ld	a4,-32(s0)
    80002fa8:	fa843783          	ld	a5,-88(s0)
    80002fac:	40f707b3          	sub	a5,a4,a5
    80002fb0:	0007871b          	sext.w	a4,a5
    80002fb4:	fc043783          	ld	a5,-64(s0)
    80002fb8:	00e7a023          	sw	a4,0(a5)
    80002fbc:	0b80006f          	j	80003074 <vsprintf+0x6e4>
    80002fc0:	fd442783          	lw	a5,-44(s0)
    80002fc4:	0027e793          	ori	a5,a5,2
    80002fc8:	fcf42a23          	sw	a5,-44(s0)
    80002fcc:	fd442783          	lw	a5,-44(s0)
    80002fd0:	0807e793          	ori	a5,a5,128
    80002fd4:	fcf42a23          	sw	a5,-44(s0)
    80002fd8:	f9843783          	ld	a5,-104(s0)
    80002fdc:	00878793          	addi	a5,a5,8
    80002fe0:	f8f43c23          	sd	a5,-104(s0)
    80002fe4:	f9843783          	ld	a5,-104(s0)
    80002fe8:	ff87b787          	fld	fa5,-8(a5)
    80002fec:	faf43827          	fsd	fa5,-80(s0)
    80002ff0:	fd442783          	lw	a5,-44(s0)
    80002ff4:	fcc42703          	lw	a4,-52(s0)
    80002ff8:	fd042683          	lw	a3,-48(s0)
    80002ffc:	fb040593          	addi	a1,s0,-80
    80003000:	00a00613          	li	a2,10
    80003004:	fe043503          	ld	a0,-32(s0)
    80003008:	bf4ff0ef          	jal	ra,800023fc <number>
    8000300c:	fea43023          	sd	a0,-32(s0)
    80003010:	0640006f          	j	80003074 <vsprintf+0x6e4>
    80003014:	fa043783          	ld	a5,-96(s0)
    80003018:	0007c783          	lbu	a5,0(a5)
    8000301c:	00078713          	mv	a4,a5
    80003020:	02500793          	li	a5,37
    80003024:	00f70c63          	beq	a4,a5,8000303c <vsprintf+0x6ac>
    80003028:	fe043783          	ld	a5,-32(s0)
    8000302c:	00178713          	addi	a4,a5,1
    80003030:	fee43023          	sd	a4,-32(s0)
    80003034:	02500713          	li	a4,37
    80003038:	00e78023          	sb	a4,0(a5)
    8000303c:	fa043783          	ld	a5,-96(s0)
    80003040:	0007c783          	lbu	a5,0(a5)
    80003044:	02078063          	beqz	a5,80003064 <vsprintf+0x6d4>
    80003048:	fa043703          	ld	a4,-96(s0)
    8000304c:	fe043783          	ld	a5,-32(s0)
    80003050:	00178693          	addi	a3,a5,1
    80003054:	fed43023          	sd	a3,-32(s0)
    80003058:	00074703          	lbu	a4,0(a4)
    8000305c:	00e78023          	sb	a4,0(a5)
    80003060:	0100006f          	j	80003070 <vsprintf+0x6e0>
    80003064:	fa043783          	ld	a5,-96(s0)
    80003068:	fff78793          	addi	a5,a5,-1
    8000306c:	faf43023          	sd	a5,-96(s0)
    80003070:	00000013          	nop
    80003074:	fa043783          	ld	a5,-96(s0)
    80003078:	00178793          	addi	a5,a5,1
    8000307c:	faf43023          	sd	a5,-96(s0)
    80003080:	fa043783          	ld	a5,-96(s0)
    80003084:	0007c783          	lbu	a5,0(a5)
    80003088:	920798e3          	bnez	a5,800029b8 <vsprintf+0x28>
    8000308c:	fe043783          	ld	a5,-32(s0)
    80003090:	00078023          	sb	zero,0(a5)
    80003094:	fe043703          	ld	a4,-32(s0)
    80003098:	fa843783          	ld	a5,-88(s0)
    8000309c:	40f707b3          	sub	a5,a4,a5
    800030a0:	fef42423          	sw	a5,-24(s0)
    800030a4:	fe842783          	lw	a5,-24(s0)
    800030a8:	0007871b          	sext.w	a4,a5
    800030ac:	0ff00793          	li	a5,255
    800030b0:	00e7da63          	bge	a5,a4,800030c4 <vsprintf+0x734>
    800030b4:	21800593          	li	a1,536
    800030b8:	00001517          	auipc	a0,0x1
    800030bc:	0a050513          	addi	a0,a0,160 # 80004158 <textEnd+0x158>
    800030c0:	0b8000ef          	jal	ra,80003178 <assert_fail>
    800030c4:	fe842783          	lw	a5,-24(s0)
    800030c8:	00078513          	mv	a0,a5
    800030cc:	06813083          	ld	ra,104(sp)
    800030d0:	06013403          	ld	s0,96(sp)
    800030d4:	07010113          	addi	sp,sp,112
    800030d8:	00008067          	ret

00000000800030dc <sprintf>:
    800030dc:	f9010113          	addi	sp,sp,-112
    800030e0:	02113c23          	sd	ra,56(sp)
    800030e4:	02813823          	sd	s0,48(sp)
    800030e8:	04010413          	addi	s0,sp,64
    800030ec:	fca43423          	sd	a0,-56(s0)
    800030f0:	fcb43023          	sd	a1,-64(s0)
    800030f4:	00c43023          	sd	a2,0(s0)
    800030f8:	00d43423          	sd	a3,8(s0)
    800030fc:	00e43823          	sd	a4,16(s0)
    80003100:	00f43c23          	sd	a5,24(s0)
    80003104:	03043023          	sd	a6,32(s0)
    80003108:	03143423          	sd	a7,40(s0)
    8000310c:	fc843c23          	sd	s0,-40(s0)
    80003110:	fd843783          	ld	a5,-40(s0)
    80003114:	fef43423          	sd	a5,-24(s0)
    80003118:	fe843603          	ld	a2,-24(s0)
    8000311c:	fc043583          	ld	a1,-64(s0)
    80003120:	fc843503          	ld	a0,-56(s0)
    80003124:	86dff0ef          	jal	ra,80002990 <vsprintf>
    80003128:	00050793          	mv	a5,a0
    8000312c:	fef42223          	sw	a5,-28(s0)
    80003130:	fe043423          	sd	zero,-24(s0)
    80003134:	fe442783          	lw	a5,-28(s0)
    80003138:	00078513          	mv	a0,a5
    8000313c:	03813083          	ld	ra,56(sp)
    80003140:	03013403          	ld	s0,48(sp)
    80003144:	07010113          	addi	sp,sp,112
    80003148:	00008067          	ret

000000008000314c <panic>:
    8000314c:	fe010113          	addi	sp,sp,-32
    80003150:	00113c23          	sd	ra,24(sp)
    80003154:	00813823          	sd	s0,16(sp)
    80003158:	02010413          	addi	s0,sp,32
    8000315c:	fea43423          	sd	a0,-24(s0)
    80003160:	c64fd0ef          	jal	ra,800005c4 <w_int_off>
    80003164:	fe843583          	ld	a1,-24(s0)
    80003168:	00001517          	auipc	a0,0x1
    8000316c:	0d050513          	addi	a0,a0,208 # 80004238 <textEnd+0x238>
    80003170:	914ff0ef          	jal	ra,80002284 <printf>
    80003174:	0000006f          	j	80003174 <panic+0x28>

0000000080003178 <assert_fail>:
    80003178:	fe010113          	addi	sp,sp,-32
    8000317c:	00113c23          	sd	ra,24(sp)
    80003180:	00813823          	sd	s0,16(sp)
    80003184:	02010413          	addi	s0,sp,32
    80003188:	fea43423          	sd	a0,-24(s0)
    8000318c:	00058793          	mv	a5,a1
    80003190:	fef42223          	sw	a5,-28(s0)
    80003194:	00001517          	auipc	a0,0x1
    80003198:	0bc50513          	addi	a0,a0,188 # 80004250 <textEnd+0x250>
    8000319c:	8e8ff0ef          	jal	ra,80002284 <printf>
    800031a0:	fe843583          	ld	a1,-24(s0)
    800031a4:	00001517          	auipc	a0,0x1
    800031a8:	0bc50513          	addi	a0,a0,188 # 80004260 <textEnd+0x260>
    800031ac:	8d8ff0ef          	jal	ra,80002284 <printf>
    800031b0:	fe442783          	lw	a5,-28(s0)
    800031b4:	00078593          	mv	a1,a5
    800031b8:	00001517          	auipc	a0,0x1
    800031bc:	0b850513          	addi	a0,a0,184 # 80004270 <textEnd+0x270>
    800031c0:	8c4ff0ef          	jal	ra,80002284 <printf>
    800031c4:	00001517          	auipc	a0,0x1
    800031c8:	08c50513          	addi	a0,a0,140 # 80004250 <textEnd+0x250>
    800031cc:	8b8ff0ef          	jal	ra,80002284 <printf>
    800031d0:	00001517          	auipc	a0,0x1
    800031d4:	0b050513          	addi	a0,a0,176 # 80004280 <textEnd+0x280>
    800031d8:	f75ff0ef          	jal	ra,8000314c <panic>
    800031dc:	00000013          	nop
    800031e0:	01813083          	ld	ra,24(sp)
    800031e4:	01013403          	ld	s0,16(sp)
    800031e8:	02010113          	addi	sp,sp,32
    800031ec:	00008067          	ret

00000000800031f0 <plic_init>:
    800031f0:	ff010113          	addi	sp,sp,-16
    800031f4:	00813423          	sd	s0,8(sp)
    800031f8:	01010413          	addi	s0,sp,16
    800031fc:	0c0007b7          	lui	a5,0xc000
    80003200:	02878793          	addi	a5,a5,40 # c000028 <_start-0x73ffffd8>
    80003204:	00100713          	li	a4,1
    80003208:	00e7a023          	sw	a4,0(a5)
    8000320c:	00000013          	nop
    80003210:	00813403          	ld	s0,8(sp)
    80003214:	01010113          	addi	sp,sp,16
    80003218:	00008067          	ret

000000008000321c <plic_init_hart>:
    8000321c:	fe010113          	addi	sp,sp,-32
    80003220:	00113c23          	sd	ra,24(sp)
    80003224:	00813823          	sd	s0,16(sp)
    80003228:	02010413          	addi	s0,sp,32
    8000322c:	818fd0ef          	jal	ra,80000244 <r_tp>
    80003230:	fea43423          	sd	a0,-24(s0)
    80003234:	fe843783          	ld	a5,-24(s0)
    80003238:	00879713          	slli	a4,a5,0x8
    8000323c:	0c0027b7          	lui	a5,0xc002
    80003240:	08078793          	addi	a5,a5,128 # c002080 <_start-0x73ffdf80>
    80003244:	00f707b3          	add	a5,a4,a5
    80003248:	00078713          	mv	a4,a5
    8000324c:	40000793          	li	a5,1024
    80003250:	00f72023          	sw	a5,0(a4)
    80003254:	fe843783          	ld	a5,-24(s0)
    80003258:	00d79713          	slli	a4,a5,0xd
    8000325c:	0c2017b7          	lui	a5,0xc201
    80003260:	00f707b3          	add	a5,a4,a5
    80003264:	0007a023          	sw	zero,0(a5) # c201000 <_start-0x73dff000>
    80003268:	00000013          	nop
    8000326c:	01813083          	ld	ra,24(sp)
    80003270:	01013403          	ld	s0,16(sp)
    80003274:	02010113          	addi	sp,sp,32
    80003278:	00008067          	ret

000000008000327c <plic_claim>:
    8000327c:	fe010113          	addi	sp,sp,-32
    80003280:	00113c23          	sd	ra,24(sp)
    80003284:	00813823          	sd	s0,16(sp)
    80003288:	02010413          	addi	s0,sp,32
    8000328c:	fb9fc0ef          	jal	ra,80000244 <r_tp>
    80003290:	fea43423          	sd	a0,-24(s0)
    80003294:	fe843783          	ld	a5,-24(s0)
    80003298:	00d79713          	slli	a4,a5,0xd
    8000329c:	0c2017b7          	lui	a5,0xc201
    800032a0:	00478793          	addi	a5,a5,4 # c201004 <_start-0x73dfeffc>
    800032a4:	00f707b3          	add	a5,a4,a5
    800032a8:	0007a783          	lw	a5,0(a5)
    800032ac:	fef42223          	sw	a5,-28(s0)
    800032b0:	fe442783          	lw	a5,-28(s0)
    800032b4:	00078513          	mv	a0,a5
    800032b8:	01813083          	ld	ra,24(sp)
    800032bc:	01013403          	ld	s0,16(sp)
    800032c0:	02010113          	addi	sp,sp,32
    800032c4:	00008067          	ret

00000000800032c8 <plic_complete>:
    800032c8:	fd010113          	addi	sp,sp,-48
    800032cc:	02113423          	sd	ra,40(sp)
    800032d0:	02813023          	sd	s0,32(sp)
    800032d4:	03010413          	addi	s0,sp,48
    800032d8:	00050793          	mv	a5,a0
    800032dc:	fcf42e23          	sw	a5,-36(s0)
    800032e0:	f65fc0ef          	jal	ra,80000244 <r_tp>
    800032e4:	fea43423          	sd	a0,-24(s0)
    800032e8:	fe843783          	ld	a5,-24(s0)
    800032ec:	00d79713          	slli	a4,a5,0xd
    800032f0:	0c2017b7          	lui	a5,0xc201
    800032f4:	00478793          	addi	a5,a5,4 # c201004 <_start-0x73dfeffc>
    800032f8:	00f707b3          	add	a5,a4,a5
    800032fc:	00078713          	mv	a4,a5
    80003300:	fdc42783          	lw	a5,-36(s0)
    80003304:	00f72023          	sw	a5,0(a4)
    80003308:	00000013          	nop
    8000330c:	02813083          	ld	ra,40(sp)
    80003310:	02013403          	ld	s0,32(sp)
    80003314:	03010113          	addi	sp,sp,48
    80003318:	00008067          	ret

000000008000331c <push_on>:
    8000331c:	fe010113          	addi	sp,sp,-32
    80003320:	00113c23          	sd	ra,24(sp)
    80003324:	00813823          	sd	s0,16(sp)
    80003328:	02010413          	addi	s0,sp,32
    8000332c:	ed9fc0ef          	jal	ra,80000204 <r_int>
    80003330:	00050793          	mv	a5,a0
    80003334:	fef42623          	sw	a5,-20(s0)
    80003338:	a8cfd0ef          	jal	ra,800005c4 <w_int_off>
    8000333c:	00001797          	auipc	a5,0x1
    80003340:	f7078793          	addi	a5,a5,-144 # 800042ac <depth_int>
    80003344:	0007a783          	lw	a5,0(a5)
    80003348:	00079a63          	bnez	a5,8000335c <push_on+0x40>
    8000334c:	00001797          	auipc	a5,0x1
    80003350:	f5c78793          	addi	a5,a5,-164 # 800042a8 <int_enable>
    80003354:	fec42703          	lw	a4,-20(s0)
    80003358:	00e7a023          	sw	a4,0(a5)
    8000335c:	00001797          	auipc	a5,0x1
    80003360:	f5078793          	addi	a5,a5,-176 # 800042ac <depth_int>
    80003364:	0007a783          	lw	a5,0(a5)
    80003368:	0017879b          	addiw	a5,a5,1
    8000336c:	0007871b          	sext.w	a4,a5
    80003370:	00001797          	auipc	a5,0x1
    80003374:	f3c78793          	addi	a5,a5,-196 # 800042ac <depth_int>
    80003378:	00e7a023          	sw	a4,0(a5)
    8000337c:	00000013          	nop
    80003380:	01813083          	ld	ra,24(sp)
    80003384:	01013403          	ld	s0,16(sp)
    80003388:	02010113          	addi	sp,sp,32
    8000338c:	00008067          	ret

0000000080003390 <pop_off>:
    80003390:	ff010113          	addi	sp,sp,-16
    80003394:	00113423          	sd	ra,8(sp)
    80003398:	00813023          	sd	s0,0(sp)
    8000339c:	01010413          	addi	s0,sp,16
    800033a0:	00001797          	auipc	a5,0x1
    800033a4:	f0c78793          	addi	a5,a5,-244 # 800042ac <depth_int>
    800033a8:	0007a783          	lw	a5,0(a5)
    800033ac:	fff7879b          	addiw	a5,a5,-1
    800033b0:	0007871b          	sext.w	a4,a5
    800033b4:	00001797          	auipc	a5,0x1
    800033b8:	ef878793          	addi	a5,a5,-264 # 800042ac <depth_int>
    800033bc:	00e7a023          	sw	a4,0(a5)
    800033c0:	00001797          	auipc	a5,0x1
    800033c4:	eec78793          	addi	a5,a5,-276 # 800042ac <depth_int>
    800033c8:	0007a783          	lw	a5,0(a5)
    800033cc:	02079063          	bnez	a5,800033ec <pop_off+0x5c>
    800033d0:	00001797          	auipc	a5,0x1
    800033d4:	ed878793          	addi	a5,a5,-296 # 800042a8 <int_enable>
    800033d8:	0007a783          	lw	a5,0(a5)
    800033dc:	00078713          	mv	a4,a5
    800033e0:	00100793          	li	a5,1
    800033e4:	00f71463          	bne	a4,a5,800033ec <pop_off+0x5c>
    800033e8:	9a4fd0ef          	jal	ra,8000058c <w_int_on>
    800033ec:	00000013          	nop
    800033f0:	00813083          	ld	ra,8(sp)
    800033f4:	00013403          	ld	s0,0(sp)
    800033f8:	01010113          	addi	sp,sp,16
    800033fc:	00008067          	ret

0000000080003400 <timer_vec>:
    80003400:	34051573          	csrrw	a0,mscratch,a0
    80003404:	00b53023          	sd	a1,0(a0)
    80003408:	00c53423          	sd	a2,8(a0)
    8000340c:	00d53823          	sd	a3,16(a0)
    80003410:	01853683          	ld	a3,24(a0)
    80003414:	02053583          	ld	a1,32(a0)
    80003418:	0006b603          	ld	a2,0(a3)
    8000341c:	00b605b3          	add	a1,a2,a1
    80003420:	00b6b023          	sd	a1,0(a3)
    80003424:	00200593          	li	a1,2
    80003428:	14459073          	csrw	sip,a1
    8000342c:	00001597          	auipc	a1,0x1
    80003430:	edc58593          	addi	a1,a1,-292 # 80004308 <tick_passed>
    80003434:	0005b603          	ld	a2,0(a1)
    80003438:	00100693          	li	a3,1
    8000343c:	00d60633          	add	a2,a2,a3
    80003440:	00c5b023          	sd	a2,0(a1)
    80003444:	01053683          	ld	a3,16(a0)
    80003448:	00853603          	ld	a2,8(a0)
    8000344c:	00053583          	ld	a1,0(a0)
    80003450:	34051573          	csrrw	a0,mscratch,a0
    80003454:	30200073          	mret

0000000080003458 <kernel_vec>:
	...
